
GccApplication6.elf:     file format elf32-avr

Sections:
Idx Name          Size      VMA       LMA       File off  Algn
  0 .data         00000068  00800200  00003c8a  00003d1e  2**0
                  CONTENTS, ALLOC, LOAD, DATA
  1 .text         00003c8a  00000000  00000000  00000094  2**1
                  CONTENTS, ALLOC, LOAD, READONLY, CODE
  2 .bss          000000e9  00800268  00800268  00003d86  2**0
                  ALLOC
  3 .comment      0000005c  00000000  00000000  00003d86  2**0
                  CONTENTS, READONLY
  4 .note.gnu.avr.deviceinfo 00000040  00000000  00000000  00003de4  2**2
                  CONTENTS, READONLY
  5 .debug_aranges 000002f0  00000000  00000000  00003e24  2**0
                  CONTENTS, READONLY, DEBUGGING
  6 .debug_info   0000583f  00000000  00000000  00004114  2**0
                  CONTENTS, READONLY, DEBUGGING
  7 .debug_abbrev 00001033  00000000  00000000  00009953  2**0
                  CONTENTS, READONLY, DEBUGGING
  8 .debug_line   000040f2  00000000  00000000  0000a986  2**0
                  CONTENTS, READONLY, DEBUGGING
  9 .debug_frame  000009a0  00000000  00000000  0000ea78  2**2
                  CONTENTS, READONLY, DEBUGGING
 10 .debug_str    00000bd2  00000000  00000000  0000f418  2**0
                  CONTENTS, READONLY, DEBUGGING
 11 .debug_loc    0000325e  00000000  00000000  0000ffea  2**0
                  CONTENTS, READONLY, DEBUGGING
 12 .debug_ranges 000003b8  00000000  00000000  00013248  2**0
                  CONTENTS, READONLY, DEBUGGING

Disassembly of section .text:

00000000 <__vectors>:
       0:	83 c0       	rjmp	.+262    	; 0x108 <__ctors_end>
       2:	00 00       	nop
       4:	d7 c0       	rjmp	.+430    	; 0x1b4 <__vector_1>
       6:	00 00       	nop
       8:	a0 c0       	rjmp	.+320    	; 0x14a <__bad_interrupt>
       a:	00 00       	nop
       c:	9e c0       	rjmp	.+316    	; 0x14a <__bad_interrupt>
       e:	00 00       	nop
      10:	9c c0       	rjmp	.+312    	; 0x14a <__bad_interrupt>
      12:	00 00       	nop
      14:	9a c0       	rjmp	.+308    	; 0x14a <__bad_interrupt>
      16:	00 00       	nop
      18:	98 c0       	rjmp	.+304    	; 0x14a <__bad_interrupt>
      1a:	00 00       	nop
      1c:	96 c0       	rjmp	.+300    	; 0x14a <__bad_interrupt>
      1e:	00 00       	nop
      20:	94 c0       	rjmp	.+296    	; 0x14a <__bad_interrupt>
      22:	00 00       	nop
      24:	92 c0       	rjmp	.+292    	; 0x14a <__bad_interrupt>
      26:	00 00       	nop
      28:	90 c0       	rjmp	.+288    	; 0x14a <__bad_interrupt>
      2a:	00 00       	nop
      2c:	8e c0       	rjmp	.+284    	; 0x14a <__bad_interrupt>
      2e:	00 00       	nop
      30:	8c c0       	rjmp	.+280    	; 0x14a <__bad_interrupt>
      32:	00 00       	nop
      34:	8a c0       	rjmp	.+276    	; 0x14a <__bad_interrupt>
      36:	00 00       	nop
      38:	88 c0       	rjmp	.+272    	; 0x14a <__bad_interrupt>
      3a:	00 00       	nop
      3c:	86 c0       	rjmp	.+268    	; 0x14a <__bad_interrupt>
      3e:	00 00       	nop
      40:	84 c0       	rjmp	.+264    	; 0x14a <__bad_interrupt>
      42:	00 00       	nop
      44:	82 c0       	rjmp	.+260    	; 0x14a <__bad_interrupt>
      46:	00 00       	nop
      48:	80 c0       	rjmp	.+256    	; 0x14a <__bad_interrupt>
      4a:	00 00       	nop
      4c:	7e c0       	rjmp	.+252    	; 0x14a <__bad_interrupt>
      4e:	00 00       	nop
      50:	7c c0       	rjmp	.+248    	; 0x14a <__bad_interrupt>
      52:	00 00       	nop
      54:	7a c0       	rjmp	.+244    	; 0x14a <__bad_interrupt>
      56:	00 00       	nop
      58:	78 c0       	rjmp	.+240    	; 0x14a <__bad_interrupt>
      5a:	00 00       	nop
      5c:	76 c0       	rjmp	.+236    	; 0x14a <__bad_interrupt>
      5e:	00 00       	nop
      60:	74 c0       	rjmp	.+232    	; 0x14a <__bad_interrupt>
      62:	00 00       	nop
      64:	72 c0       	rjmp	.+228    	; 0x14a <__bad_interrupt>
      66:	00 00       	nop
      68:	70 c0       	rjmp	.+224    	; 0x14a <__bad_interrupt>
      6a:	00 00       	nop
      6c:	6e c0       	rjmp	.+220    	; 0x14a <__bad_interrupt>
      6e:	00 00       	nop
      70:	6c c0       	rjmp	.+216    	; 0x14a <__bad_interrupt>
      72:	00 00       	nop
      74:	6a c0       	rjmp	.+212    	; 0x14a <__bad_interrupt>
      76:	00 00       	nop
      78:	68 c0       	rjmp	.+208    	; 0x14a <__bad_interrupt>
      7a:	00 00       	nop
      7c:	66 c0       	rjmp	.+204    	; 0x14a <__bad_interrupt>
      7e:	00 00       	nop
      80:	64 c0       	rjmp	.+200    	; 0x14a <__bad_interrupt>
      82:	00 00       	nop
      84:	62 c0       	rjmp	.+196    	; 0x14a <__bad_interrupt>
      86:	00 00       	nop
      88:	60 c0       	rjmp	.+192    	; 0x14a <__bad_interrupt>
      8a:	00 00       	nop
      8c:	5e c0       	rjmp	.+188    	; 0x14a <__bad_interrupt>
      8e:	00 00       	nop
      90:	5c c0       	rjmp	.+184    	; 0x14a <__bad_interrupt>
      92:	00 00       	nop
      94:	5a c0       	rjmp	.+180    	; 0x14a <__bad_interrupt>
      96:	00 00       	nop
      98:	58 c0       	rjmp	.+176    	; 0x14a <__bad_interrupt>
      9a:	00 00       	nop
      9c:	56 c0       	rjmp	.+172    	; 0x14a <__bad_interrupt>
      9e:	00 00       	nop
      a0:	54 c0       	rjmp	.+168    	; 0x14a <__bad_interrupt>
      a2:	00 00       	nop
      a4:	52 c0       	rjmp	.+164    	; 0x14a <__bad_interrupt>
      a6:	00 00       	nop
      a8:	50 c0       	rjmp	.+160    	; 0x14a <__bad_interrupt>
      aa:	00 00       	nop
      ac:	4e c0       	rjmp	.+156    	; 0x14a <__bad_interrupt>
      ae:	00 00       	nop
      b0:	4c c0       	rjmp	.+152    	; 0x14a <__bad_interrupt>
      b2:	00 00       	nop
      b4:	4a c0       	rjmp	.+148    	; 0x14a <__bad_interrupt>
      b6:	00 00       	nop
      b8:	48 c0       	rjmp	.+144    	; 0x14a <__bad_interrupt>
      ba:	00 00       	nop
      bc:	46 c0       	rjmp	.+140    	; 0x14a <__bad_interrupt>
      be:	00 00       	nop
      c0:	44 c0       	rjmp	.+136    	; 0x14a <__bad_interrupt>
      c2:	00 00       	nop
      c4:	42 c0       	rjmp	.+132    	; 0x14a <__bad_interrupt>
      c6:	00 00       	nop
      c8:	40 c0       	rjmp	.+128    	; 0x14a <__bad_interrupt>
      ca:	00 00       	nop
      cc:	3e c0       	rjmp	.+124    	; 0x14a <__bad_interrupt>
      ce:	00 00       	nop
      d0:	3c c0       	rjmp	.+120    	; 0x14a <__bad_interrupt>
      d2:	00 00       	nop
      d4:	3a c0       	rjmp	.+116    	; 0x14a <__bad_interrupt>
      d6:	00 00       	nop
      d8:	38 c0       	rjmp	.+112    	; 0x14a <__bad_interrupt>
      da:	00 00       	nop
      dc:	36 c0       	rjmp	.+108    	; 0x14a <__bad_interrupt>
      de:	00 00       	nop
      e0:	34 c0       	rjmp	.+104    	; 0x14a <__bad_interrupt>
      e2:	00 00       	nop
      e4:	46 14       	cp	r4, r6
      e6:	80 14       	cp	r8, r0
      e8:	c6 14       	cp	r12, r6
      ea:	0c 15       	cp	r16, r12
      ec:	29 15       	cp	r18, r9
      ee:	4c 15       	cp	r20, r12
      f0:	6f 15       	cp	r22, r15
      f2:	7f 15       	cp	r23, r15
      f4:	9c 15       	cp	r25, r12
      f6:	dc 15       	cp	r29, r12
      f8:	42 16       	cp	r4, r18
      fa:	9b 16       	cp	r9, r27
      fc:	d6 16       	cp	r13, r22
      fe:	11 17       	cp	r17, r17
     100:	61 17       	cp	r22, r17
     102:	ba 17       	cp	r27, r26
     104:	64 18       	sub	r6, r4
     106:	aa 18       	sub	r10, r10

00000108 <__ctors_end>:
     108:	11 24       	eor	r1, r1
     10a:	1f be       	out	0x3f, r1	; 63
     10c:	cf ef       	ldi	r28, 0xFF	; 255
     10e:	d1 e2       	ldi	r29, 0x21	; 33
     110:	de bf       	out	0x3e, r29	; 62
     112:	cd bf       	out	0x3d, r28	; 61
     114:	00 e0       	ldi	r16, 0x00	; 0
     116:	0c bf       	out	0x3c, r16	; 60

00000118 <__do_copy_data>:
     118:	12 e0       	ldi	r17, 0x02	; 2
     11a:	a0 e0       	ldi	r26, 0x00	; 0
     11c:	b2 e0       	ldi	r27, 0x02	; 2
     11e:	ea e8       	ldi	r30, 0x8A	; 138
     120:	fc e3       	ldi	r31, 0x3C	; 60
     122:	00 e0       	ldi	r16, 0x00	; 0
     124:	0b bf       	out	0x3b, r16	; 59
     126:	02 c0       	rjmp	.+4      	; 0x12c <__do_copy_data+0x14>
     128:	07 90       	elpm	r0, Z+
     12a:	0d 92       	st	X+, r0
     12c:	a8 36       	cpi	r26, 0x68	; 104
     12e:	b1 07       	cpc	r27, r17
     130:	d9 f7       	brne	.-10     	; 0x128 <__do_copy_data+0x10>

00000132 <__do_clear_bss>:
     132:	23 e0       	ldi	r18, 0x03	; 3
     134:	a8 e6       	ldi	r26, 0x68	; 104
     136:	b2 e0       	ldi	r27, 0x02	; 2
     138:	01 c0       	rjmp	.+2      	; 0x13c <.do_clear_bss_start>

0000013a <.do_clear_bss_loop>:
     13a:	1d 92       	st	X+, r1

0000013c <.do_clear_bss_start>:
     13c:	a1 35       	cpi	r26, 0x51	; 81
     13e:	b2 07       	cpc	r27, r18
     140:	e1 f7       	brne	.-8      	; 0x13a <.do_clear_bss_loop>
     142:	0e 94 f7 1a 	call	0x35ee	; 0x35ee <main>
     146:	0c 94 43 1e 	jmp	0x3c86	; 0x3c86 <_exit>

0000014a <__bad_interrupt>:
     14a:	5a cf       	rjmp	.-332    	; 0x0 <__vectors>

0000014c <delay>:
			else
			{
			//	return(0);
				
			}
	}
     14c:	0f 93       	push	r16
     14e:	1f 93       	push	r17
     150:	8b 01       	movw	r16, r22
     152:	9c 01       	movw	r18, r24
     154:	99 23       	and	r25, r25
     156:	84 f4       	brge	.+32     	; 0x178 <delay+0x2c>
     158:	15 c0       	rjmp	.+42     	; 0x184 <delay+0x38>
     15a:	01 96       	adiw	r24, 0x01	; 1
     15c:	81 3d       	cpi	r24, 0xD1	; 209
     15e:	e7 e0       	ldi	r30, 0x07	; 7
     160:	9e 07       	cpc	r25, r30
     162:	d9 f7       	brne	.-10     	; 0x15a <delay+0xe>
     164:	4f 5f       	subi	r20, 0xFF	; 255
     166:	5f 4f       	sbci	r21, 0xFF	; 255
     168:	6f 4f       	sbci	r22, 0xFF	; 255
     16a:	7f 4f       	sbci	r23, 0xFF	; 255
     16c:	04 17       	cp	r16, r20
     16e:	15 07       	cpc	r17, r21
     170:	26 07       	cpc	r18, r22
     172:	37 07       	cpc	r19, r23
     174:	24 f4       	brge	.+8      	; 0x17e <delay+0x32>
     176:	06 c0       	rjmp	.+12     	; 0x184 <delay+0x38>
     178:	40 e0       	ldi	r20, 0x00	; 0
     17a:	50 e0       	ldi	r21, 0x00	; 0
     17c:	ba 01       	movw	r22, r20
     17e:	80 e0       	ldi	r24, 0x00	; 0
     180:	90 e0       	ldi	r25, 0x00	; 0
     182:	eb cf       	rjmp	.-42     	; 0x15a <delay+0xe>
     184:	1f 91       	pop	r17
     186:	0f 91       	pop	r16
     188:	08 95       	ret

0000018a <rgb_port_config>:
     18a:	8f ef       	ldi	r24, 0xFF	; 255
     18c:	80 93 01 01 	sts	0x0101, r24	; 0x800101 <__TEXT_REGION_LENGTH__+0x700101>
     190:	80 93 02 01 	sts	0x0102, r24	; 0x800102 <__TEXT_REGION_LENGTH__+0x700102>
     194:	08 95       	ret

00000196 <color_sensor_pin_config>:
     196:	8e ef       	ldi	r24, 0xFE	; 254
     198:	8a b9       	out	0x0a, r24	; 10
     19a:	81 e0       	ldi	r24, 0x01	; 1
     19c:	8b b9       	out	0x0b, r24	; 11
     19e:	8f ef       	ldi	r24, 0xFF	; 255
     1a0:	84 b9       	out	0x04, r24	; 4
     1a2:	08 95       	ret

000001a4 <color_sensor_pin_interrupt_init>:
     1a4:	f8 94       	cli
     1a6:	82 e0       	ldi	r24, 0x02	; 2
     1a8:	80 93 69 00 	sts	0x0069, r24	; 0x800069 <__TEXT_REGION_LENGTH__+0x700069>
     1ac:	81 e0       	ldi	r24, 0x01	; 1
     1ae:	8d bb       	out	0x1d, r24	; 29
     1b0:	78 94       	sei
     1b2:	08 95       	ret

000001b4 <__vector_1>:
     1b4:	1f 92       	push	r1
     1b6:	0f 92       	push	r0
     1b8:	0f b6       	in	r0, 0x3f	; 63
     1ba:	0f 92       	push	r0
     1bc:	11 24       	eor	r1, r1
     1be:	8f 93       	push	r24
     1c0:	9f 93       	push	r25
     1c2:	80 91 73 02 	lds	r24, 0x0273	; 0x800273 <pulse>
     1c6:	90 91 74 02 	lds	r25, 0x0274	; 0x800274 <pulse+0x1>
     1ca:	01 96       	adiw	r24, 0x01	; 1
     1cc:	90 93 74 02 	sts	0x0274, r25	; 0x800274 <pulse+0x1>
     1d0:	80 93 73 02 	sts	0x0273, r24	; 0x800273 <pulse>
     1d4:	9f 91       	pop	r25
     1d6:	8f 91       	pop	r24
     1d8:	0f 90       	pop	r0
     1da:	0f be       	out	0x3f, r0	; 63
     1dc:	0f 90       	pop	r0
     1de:	1f 90       	pop	r1
     1e0:	18 95       	reti

000001e2 <servo1_pin_config>:
     1e2:	6c 9a       	sbi	0x0d, 4	; 13
     1e4:	74 9a       	sbi	0x0e, 4	; 14
     1e6:	08 95       	ret

000001e8 <servo2_pin_config>:
     1e8:	6d 9a       	sbi	0x0d, 5	; 13
     1ea:	75 9a       	sbi	0x0e, 5	; 14
     1ec:	08 95       	ret

000001ee <timer3_init>:
     1ee:	e1 e9       	ldi	r30, 0x91	; 145
     1f0:	f0 e0       	ldi	r31, 0x00	; 0
     1f2:	10 82       	st	Z, r1
     1f4:	8c ef       	ldi	r24, 0xFC	; 252
     1f6:	80 93 95 00 	sts	0x0095, r24	; 0x800095 <__TEXT_REGION_LENGTH__+0x700095>
     1fa:	81 e0       	ldi	r24, 0x01	; 1
     1fc:	80 93 94 00 	sts	0x0094, r24	; 0x800094 <__TEXT_REGION_LENGTH__+0x700094>
     200:	93 e0       	ldi	r25, 0x03	; 3
     202:	90 93 99 00 	sts	0x0099, r25	; 0x800099 <__TEXT_REGION_LENGTH__+0x700099>
     206:	8f ef       	ldi	r24, 0xFF	; 255
     208:	80 93 98 00 	sts	0x0098, r24	; 0x800098 <__TEXT_REGION_LENGTH__+0x700098>
     20c:	90 93 9b 00 	sts	0x009B, r25	; 0x80009b <__TEXT_REGION_LENGTH__+0x70009b>
     210:	80 93 9a 00 	sts	0x009A, r24	; 0x80009a <__TEXT_REGION_LENGTH__+0x70009a>
     214:	90 93 9d 00 	sts	0x009D, r25	; 0x80009d <__TEXT_REGION_LENGTH__+0x70009d>
     218:	80 93 9c 00 	sts	0x009C, r24	; 0x80009c <__TEXT_REGION_LENGTH__+0x70009c>
     21c:	90 93 97 00 	sts	0x0097, r25	; 0x800097 <__TEXT_REGION_LENGTH__+0x700097>
     220:	80 93 96 00 	sts	0x0096, r24	; 0x800096 <__TEXT_REGION_LENGTH__+0x700096>
     224:	8b ea       	ldi	r24, 0xAB	; 171
     226:	80 93 90 00 	sts	0x0090, r24	; 0x800090 <__TEXT_REGION_LENGTH__+0x700090>
     22a:	10 92 92 00 	sts	0x0092, r1	; 0x800092 <__TEXT_REGION_LENGTH__+0x700092>
     22e:	8c e0       	ldi	r24, 0x0C	; 12
     230:	80 83       	st	Z, r24
     232:	08 95       	ret

00000234 <servo_1_free>:
     234:	83 e0       	ldi	r24, 0x03	; 3
     236:	80 93 9b 00 	sts	0x009B, r24	; 0x80009b <__TEXT_REGION_LENGTH__+0x70009b>
     23a:	8f ef       	ldi	r24, 0xFF	; 255
     23c:	80 93 9a 00 	sts	0x009A, r24	; 0x80009a <__TEXT_REGION_LENGTH__+0x70009a>
     240:	08 95       	ret

00000242 <servo_2_free>:
     242:	83 e0       	ldi	r24, 0x03	; 3
     244:	80 93 9d 00 	sts	0x009D, r24	; 0x80009d <__TEXT_REGION_LENGTH__+0x70009d>
     248:	8f ef       	ldi	r24, 0xFF	; 255
     24a:	80 93 9c 00 	sts	0x009C, r24	; 0x80009c <__TEXT_REGION_LENGTH__+0x70009c>
     24e:	08 95       	ret

00000250 <lcd_port_config>:
     250:	87 b1       	in	r24, 0x07	; 7
     252:	87 6f       	ori	r24, 0xF7	; 247
     254:	87 b9       	out	0x07, r24	; 7
     256:	88 b1       	in	r24, 0x08	; 8
     258:	80 78       	andi	r24, 0x80	; 128
     25a:	88 b9       	out	0x08, r24	; 8
     25c:	08 95       	ret

0000025e <Busy_wait>:
     25e:	42 98       	cbi	0x08, 2	; 8
     260:	40 98       	cbi	0x08, 0	; 8
     262:	41 9a       	sbi	0x08, 1	; 8
     264:	88 b1       	in	r24, 0x08	; 8
     266:	8f 70       	andi	r24, 0x0F	; 15
     268:	88 b9       	out	0x08, r24	; 8
     26a:	87 b1       	in	r24, 0x07	; 7
     26c:	8f 70       	andi	r24, 0x0F	; 15
     26e:	87 b9       	out	0x07, r24	; 7
     270:	88 b1       	in	r24, 0x08	; 8
     272:	88 b9       	out	0x08, r24	; 8
     274:	42 9a       	sbi	0x08, 2	; 8
     276:	42 98       	cbi	0x08, 2	; 8
     278:	42 9a       	sbi	0x08, 2	; 8
     27a:	42 98       	cbi	0x08, 2	; 8
     27c:	47 99       	sbic	0x08, 7	; 8
     27e:	fa cf       	rjmp	.-12     	; 0x274 <Busy_wait+0x16>
     280:	42 98       	cbi	0x08, 2	; 8
     282:	41 98       	cbi	0x08, 1	; 8
     284:	87 b1       	in	r24, 0x07	; 7
     286:	88 70       	andi	r24, 0x08	; 8
     288:	87 b9       	out	0x07, r24	; 7
     28a:	87 b1       	in	r24, 0x07	; 7
     28c:	87 6f       	ori	r24, 0xF7	; 247
     28e:	87 b9       	out	0x07, r24	; 7
     290:	80 e0       	ldi	r24, 0x00	; 0
     292:	08 95       	ret

00000294 <lcd_wr_command>:
     294:	42 98       	cbi	0x08, 2	; 8
     296:	40 98       	cbi	0x08, 0	; 8
     298:	41 98       	cbi	0x08, 1	; 8
     29a:	98 b1       	in	r25, 0x08	; 8
     29c:	9f 70       	andi	r25, 0x0F	; 15
     29e:	98 b9       	out	0x08, r25	; 8
     2a0:	98 b1       	in	r25, 0x08	; 8
     2a2:	28 2f       	mov	r18, r24
     2a4:	20 7f       	andi	r18, 0xF0	; 240
     2a6:	92 2b       	or	r25, r18
     2a8:	98 b9       	out	0x08, r25	; 8
     2aa:	42 9a       	sbi	0x08, 2	; 8
     2ac:	42 98       	cbi	0x08, 2	; 8
     2ae:	98 b1       	in	r25, 0x08	; 8
     2b0:	9f 70       	andi	r25, 0x0F	; 15
     2b2:	98 b9       	out	0x08, r25	; 8
     2b4:	98 b1       	in	r25, 0x08	; 8
     2b6:	82 95       	swap	r24
     2b8:	80 7f       	andi	r24, 0xF0	; 240
     2ba:	89 2b       	or	r24, r25
     2bc:	88 b9       	out	0x08, r24	; 8
     2be:	42 9a       	sbi	0x08, 2	; 8
     2c0:	42 98       	cbi	0x08, 2	; 8
     2c2:	cd df       	rcall	.-102    	; 0x25e <Busy_wait>
     2c4:	81 11       	cpse	r24, r1
     2c6:	fd cf       	rjmp	.-6      	; 0x2c2 <lcd_wr_command+0x2e>
     2c8:	81 ee       	ldi	r24, 0xE1	; 225
     2ca:	94 e0       	ldi	r25, 0x04	; 4
     2cc:	01 97       	sbiw	r24, 0x01	; 1
     2ce:	f1 f7       	brne	.-4      	; 0x2cc <lcd_wr_command+0x38>
     2d0:	00 c0       	rjmp	.+0      	; 0x2d2 <lcd_wr_command+0x3e>
     2d2:	00 00       	nop
     2d4:	08 95       	ret

000002d6 <lcd_wr_char>:
     2d6:	42 98       	cbi	0x08, 2	; 8
     2d8:	40 9a       	sbi	0x08, 0	; 8
     2da:	41 98       	cbi	0x08, 1	; 8
     2dc:	98 b1       	in	r25, 0x08	; 8
     2de:	9f 70       	andi	r25, 0x0F	; 15
     2e0:	98 b9       	out	0x08, r25	; 8
     2e2:	98 b1       	in	r25, 0x08	; 8
     2e4:	28 2f       	mov	r18, r24
     2e6:	20 7f       	andi	r18, 0xF0	; 240
     2e8:	92 2b       	or	r25, r18
     2ea:	98 b9       	out	0x08, r25	; 8
     2ec:	42 9a       	sbi	0x08, 2	; 8
     2ee:	42 98       	cbi	0x08, 2	; 8
     2f0:	98 b1       	in	r25, 0x08	; 8
     2f2:	9f 70       	andi	r25, 0x0F	; 15
     2f4:	98 b9       	out	0x08, r25	; 8
     2f6:	98 b1       	in	r25, 0x08	; 8
     2f8:	82 95       	swap	r24
     2fa:	80 7f       	andi	r24, 0xF0	; 240
     2fc:	89 2b       	or	r24, r25
     2fe:	88 b9       	out	0x08, r24	; 8
     300:	42 9a       	sbi	0x08, 2	; 8
     302:	42 98       	cbi	0x08, 2	; 8
     304:	89 ef       	ldi	r24, 0xF9	; 249
     306:	90 e0       	ldi	r25, 0x00	; 0
     308:	01 97       	sbiw	r24, 0x01	; 1
     30a:	f1 f7       	brne	.-4      	; 0x308 <lcd_wr_char+0x32>
     30c:	00 c0       	rjmp	.+0      	; 0x30e <lcd_wr_char+0x38>
     30e:	00 00       	nop
     310:	08 95       	ret

00000312 <lcd_init>:
     312:	80 e2       	ldi	r24, 0x20	; 32
     314:	bf df       	rcall	.-130    	; 0x294 <lcd_wr_command>
     316:	88 e2       	ldi	r24, 0x28	; 40
     318:	bd df       	rcall	.-134    	; 0x294 <lcd_wr_command>
     31a:	8c e0       	ldi	r24, 0x0C	; 12
     31c:	bb df       	rcall	.-138    	; 0x294 <lcd_wr_command>
     31e:	86 e0       	ldi	r24, 0x06	; 6
     320:	b9 df       	rcall	.-142    	; 0x294 <lcd_wr_command>
     322:	81 e0       	ldi	r24, 0x01	; 1
     324:	b7 cf       	rjmp	.-146    	; 0x294 <lcd_wr_command>
     326:	08 95       	ret

00000328 <lcd_cursor>:
     328:	82 30       	cpi	r24, 0x02	; 2
     32a:	69 f0       	breq	.+26     	; 0x346 <lcd_cursor+0x1e>
     32c:	18 f4       	brcc	.+6      	; 0x334 <lcd_cursor+0xc>
     32e:	81 30       	cpi	r24, 0x01	; 1
     330:	31 f0       	breq	.+12     	; 0x33e <lcd_cursor+0x16>
     332:	08 95       	ret
     334:	83 30       	cpi	r24, 0x03	; 3
     336:	59 f0       	breq	.+22     	; 0x34e <lcd_cursor+0x26>
     338:	84 30       	cpi	r24, 0x04	; 4
     33a:	69 f0       	breq	.+26     	; 0x356 <lcd_cursor+0x2e>
     33c:	08 95       	ret
     33e:	8f e7       	ldi	r24, 0x7F	; 127
     340:	86 0f       	add	r24, r22
     342:	a8 cf       	rjmp	.-176    	; 0x294 <lcd_wr_command>
     344:	08 95       	ret
     346:	8f eb       	ldi	r24, 0xBF	; 191
     348:	86 0f       	add	r24, r22
     34a:	a4 cf       	rjmp	.-184    	; 0x294 <lcd_wr_command>
     34c:	08 95       	ret
     34e:	83 e9       	ldi	r24, 0x93	; 147
     350:	86 0f       	add	r24, r22
     352:	a0 cf       	rjmp	.-192    	; 0x294 <lcd_wr_command>
     354:	08 95       	ret
     356:	83 ed       	ldi	r24, 0xD3	; 211
     358:	86 0f       	add	r24, r22
     35a:	9c cf       	rjmp	.-200    	; 0x294 <lcd_wr_command>
     35c:	08 95       	ret

0000035e <lcd_string>:
     35e:	cf 93       	push	r28
     360:	df 93       	push	r29
     362:	ec 01       	movw	r28, r24
     364:	88 81       	ld	r24, Y
     366:	88 23       	and	r24, r24
     368:	29 f0       	breq	.+10     	; 0x374 <lcd_string+0x16>
     36a:	21 96       	adiw	r28, 0x01	; 1
     36c:	b4 df       	rcall	.-152    	; 0x2d6 <lcd_wr_char>
     36e:	89 91       	ld	r24, Y+
     370:	81 11       	cpse	r24, r1
     372:	fc cf       	rjmp	.-8      	; 0x36c <lcd_string+0xe>
     374:	df 91       	pop	r29
     376:	cf 91       	pop	r28
     378:	08 95       	ret

0000037a <lcd_home>:
     37a:	80 e8       	ldi	r24, 0x80	; 128
     37c:	8b cf       	rjmp	.-234    	; 0x294 <lcd_wr_command>
     37e:	08 95       	ret

00000380 <getPow>:
     380:	cf 92       	push	r12
     382:	df 92       	push	r13
     384:	ef 92       	push	r14
     386:	ff 92       	push	r15
     388:	66 23       	and	r22, r22
     38a:	b1 f0       	breq	.+44     	; 0x3b8 <getPow+0x38>
     38c:	c8 2e       	mov	r12, r24
     38e:	d1 2c       	mov	r13, r1
     390:	e1 2c       	mov	r14, r1
     392:	f1 2c       	mov	r15, r1
     394:	ef ef       	ldi	r30, 0xFF	; 255
     396:	e6 0f       	add	r30, r22
     398:	a1 f0       	breq	.+40     	; 0x3c2 <getPow+0x42>
     39a:	68 2f       	mov	r22, r24
     39c:	7d 2d       	mov	r23, r13
     39e:	8e 2d       	mov	r24, r14
     3a0:	9f 2d       	mov	r25, r15
     3a2:	26 2f       	mov	r18, r22
     3a4:	37 2f       	mov	r19, r23
     3a6:	48 2f       	mov	r20, r24
     3a8:	59 2f       	mov	r21, r25
     3aa:	c7 01       	movw	r24, r14
     3ac:	b6 01       	movw	r22, r12
     3ae:	0e 94 31 1b 	call	0x3662	; 0x3662 <__mulsi3>
     3b2:	e1 50       	subi	r30, 0x01	; 1
     3b4:	b1 f7       	brne	.-20     	; 0x3a2 <getPow+0x22>
     3b6:	09 c0       	rjmp	.+18     	; 0x3ca <getPow+0x4a>
     3b8:	61 e0       	ldi	r22, 0x01	; 1
     3ba:	70 e0       	ldi	r23, 0x00	; 0
     3bc:	80 e0       	ldi	r24, 0x00	; 0
     3be:	90 e0       	ldi	r25, 0x00	; 0
     3c0:	04 c0       	rjmp	.+8      	; 0x3ca <getPow+0x4a>
     3c2:	68 2f       	mov	r22, r24
     3c4:	7d 2d       	mov	r23, r13
     3c6:	8e 2d       	mov	r24, r14
     3c8:	9f 2d       	mov	r25, r15
     3ca:	ff 90       	pop	r15
     3cc:	ef 90       	pop	r14
     3ce:	df 90       	pop	r13
     3d0:	cf 90       	pop	r12
     3d2:	08 95       	ret

000003d4 <getDigits>:
     3d4:	cf 92       	push	r12
     3d6:	df 92       	push	r13
     3d8:	ef 92       	push	r14
     3da:	ff 92       	push	r15
     3dc:	6b 01       	movw	r12, r22
     3de:	7c 01       	movw	r14, r24
     3e0:	6f ef       	ldi	r22, 0xFF	; 255
     3e2:	64 0f       	add	r22, r20
     3e4:	8a e0       	ldi	r24, 0x0A	; 10
     3e6:	cc df       	rcall	.-104    	; 0x380 <getPow>
     3e8:	9b 01       	movw	r18, r22
     3ea:	ac 01       	movw	r20, r24
     3ec:	c7 01       	movw	r24, r14
     3ee:	b6 01       	movw	r22, r12
     3f0:	0e 94 40 1b 	call	0x3680	; 0x3680 <__udivmodsi4>
     3f4:	ca 01       	movw	r24, r20
     3f6:	b9 01       	movw	r22, r18
     3f8:	2a e0       	ldi	r18, 0x0A	; 10
     3fa:	30 e0       	ldi	r19, 0x00	; 0
     3fc:	40 e0       	ldi	r20, 0x00	; 0
     3fe:	50 e0       	ldi	r21, 0x00	; 0
     400:	0e 94 40 1b 	call	0x3680	; 0x3680 <__udivmodsi4>
     404:	80 e3       	ldi	r24, 0x30	; 48
     406:	86 0f       	add	r24, r22
     408:	ff 90       	pop	r15
     40a:	ef 90       	pop	r14
     40c:	df 90       	pop	r13
     40e:	cf 90       	pop	r12
     410:	08 95       	ret

00000412 <lcd_print>:
     412:	cf 92       	push	r12
     414:	df 92       	push	r13
     416:	ef 92       	push	r14
     418:	ff 92       	push	r15
     41a:	0f 93       	push	r16
     41c:	1f 93       	push	r17
     41e:	69 01       	movw	r12, r18
     420:	7a 01       	movw	r14, r20
     422:	88 23       	and	r24, r24
     424:	11 f0       	breq	.+4      	; 0x42a <lcd_print+0x18>
     426:	61 11       	cpse	r22, r1
     428:	02 c0       	rjmp	.+4      	; 0x42e <lcd_print+0x1c>
     42a:	a7 df       	rcall	.-178    	; 0x37a <lcd_home>
     42c:	01 c0       	rjmp	.+2      	; 0x430 <lcd_print+0x1e>
     42e:	7c df       	rcall	.-264    	; 0x328 <lcd_cursor>
     430:	0b 30       	cpi	r16, 0x0B	; 11
     432:	11 05       	cpc	r17, r1
     434:	1c f0       	brlt	.+6      	; 0x43c <lcd_print+0x2a>
     436:	88 e5       	ldi	r24, 0x58	; 88
     438:	4e df       	rcall	.-356    	; 0x2d6 <lcd_wr_char>
     43a:	09 c0       	rjmp	.+18     	; 0x44e <lcd_print+0x3c>
     43c:	00 23       	and	r16, r16
     43e:	39 f0       	breq	.+14     	; 0x44e <lcd_print+0x3c>
     440:	40 2f       	mov	r20, r16
     442:	c7 01       	movw	r24, r14
     444:	b6 01       	movw	r22, r12
     446:	c6 df       	rcall	.-116    	; 0x3d4 <getDigits>
     448:	46 df       	rcall	.-372    	; 0x2d6 <lcd_wr_char>
     44a:	01 50       	subi	r16, 0x01	; 1
     44c:	c9 f7       	brne	.-14     	; 0x440 <lcd_print+0x2e>
     44e:	1f 91       	pop	r17
     450:	0f 91       	pop	r16
     452:	ff 90       	pop	r15
     454:	ef 90       	pop	r14
     456:	df 90       	pop	r13
     458:	cf 90       	pop	r12
     45a:	08 95       	ret

0000045c <adc_pin_config>:
     45c:	10 ba       	out	0x10, r1	; 16
     45e:	11 ba       	out	0x11, r1	; 17
     460:	10 92 07 01 	sts	0x0107, r1	; 0x800107 <__TEXT_REGION_LENGTH__+0x700107>
     464:	10 92 08 01 	sts	0x0108, r1	; 0x800108 <__TEXT_REGION_LENGTH__+0x700108>
     468:	08 95       	ret

0000046a <adc_init>:
     46a:	ea e7       	ldi	r30, 0x7A	; 122
     46c:	f0 e0       	ldi	r31, 0x00	; 0
     46e:	10 82       	st	Z, r1
     470:	10 92 7b 00 	sts	0x007B, r1	; 0x80007b <__TEXT_REGION_LENGTH__+0x70007b>
     474:	80 e2       	ldi	r24, 0x20	; 32
     476:	80 93 7c 00 	sts	0x007C, r24	; 0x80007c <__TEXT_REGION_LENGTH__+0x70007c>
     47a:	80 e8       	ldi	r24, 0x80	; 128
     47c:	80 bf       	out	0x30, r24	; 48
     47e:	86 e8       	ldi	r24, 0x86	; 134
     480:	80 83       	st	Z, r24
     482:	08 95       	ret

00000484 <timer5_init>:
     484:	e1 e2       	ldi	r30, 0x21	; 33
     486:	f1 e0       	ldi	r31, 0x01	; 1
     488:	10 82       	st	Z, r1
     48a:	8f ef       	ldi	r24, 0xFF	; 255
     48c:	80 93 25 01 	sts	0x0125, r24	; 0x800125 <__TEXT_REGION_LENGTH__+0x700125>
     490:	91 e0       	ldi	r25, 0x01	; 1
     492:	90 93 24 01 	sts	0x0124, r25	; 0x800124 <__TEXT_REGION_LENGTH__+0x700124>
     496:	10 92 29 01 	sts	0x0129, r1	; 0x800129 <__TEXT_REGION_LENGTH__+0x700129>
     49a:	80 93 28 01 	sts	0x0128, r24	; 0x800128 <__TEXT_REGION_LENGTH__+0x700128>
     49e:	10 92 2b 01 	sts	0x012B, r1	; 0x80012b <__TEXT_REGION_LENGTH__+0x70012b>
     4a2:	80 93 2a 01 	sts	0x012A, r24	; 0x80012a <__TEXT_REGION_LENGTH__+0x70012a>
     4a6:	10 92 2d 01 	sts	0x012D, r1	; 0x80012d <__TEXT_REGION_LENGTH__+0x70012d>
     4aa:	80 93 2c 01 	sts	0x012C, r24	; 0x80012c <__TEXT_REGION_LENGTH__+0x70012c>
     4ae:	89 ea       	ldi	r24, 0xA9	; 169
     4b0:	80 93 20 01 	sts	0x0120, r24	; 0x800120 <__TEXT_REGION_LENGTH__+0x700120>
     4b4:	8b e0       	ldi	r24, 0x0B	; 11
     4b6:	80 83       	st	Z, r24
     4b8:	08 95       	ret

000004ba <motion_set>:
     4ba:	92 b1       	in	r25, 0x02	; 2
     4bc:	90 7f       	andi	r25, 0xF0	; 240
     4be:	8f 70       	andi	r24, 0x0F	; 15
     4c0:	98 2b       	or	r25, r24
     4c2:	92 b9       	out	0x02, r25	; 2
     4c4:	08 95       	ret

000004c6 <forward>:
     4c6:	86 e0       	ldi	r24, 0x06	; 6
     4c8:	f8 cf       	rjmp	.-16     	; 0x4ba <motion_set>
     4ca:	08 95       	ret

000004cc <stop>:
     4cc:	80 e0       	ldi	r24, 0x00	; 0
     4ce:	f5 cf       	rjmp	.-22     	; 0x4ba <motion_set>
     4d0:	08 95       	ret

000004d2 <left>:
     4d2:	88 ec       	ldi	r24, 0xC8	; 200
     4d4:	80 93 28 01 	sts	0x0128, r24	; 0x800128 <__TEXT_REGION_LENGTH__+0x700128>
     4d8:	80 93 2a 01 	sts	0x012A, r24	; 0x80012a <__TEXT_REGION_LENGTH__+0x70012a>
     4dc:	85 e0       	ldi	r24, 0x05	; 5
     4de:	ed cf       	rjmp	.-38     	; 0x4ba <motion_set>
     4e0:	08 95       	ret

000004e2 <right>:
     4e2:	88 ec       	ldi	r24, 0xC8	; 200
     4e4:	80 93 28 01 	sts	0x0128, r24	; 0x800128 <__TEXT_REGION_LENGTH__+0x700128>
     4e8:	80 93 2a 01 	sts	0x012A, r24	; 0x80012a <__TEXT_REGION_LENGTH__+0x70012a>
     4ec:	8a e0       	ldi	r24, 0x0A	; 10
     4ee:	e5 cf       	rjmp	.-54     	; 0x4ba <motion_set>
     4f0:	08 95       	ret

000004f2 <ADC_Conversion>:
     4f2:	88 30       	cpi	r24, 0x08	; 8
     4f4:	18 f0       	brcs	.+6      	; 0x4fc <ADC_Conversion+0xa>
     4f6:	98 e0       	ldi	r25, 0x08	; 8
     4f8:	90 93 7b 00 	sts	0x007B, r25	; 0x80007b <__TEXT_REGION_LENGTH__+0x70007b>
     4fc:	87 70       	andi	r24, 0x07	; 7
     4fe:	80 6e       	ori	r24, 0xE0	; 224
     500:	80 93 7c 00 	sts	0x007C, r24	; 0x80007c <__TEXT_REGION_LENGTH__+0x70007c>
     504:	ea e7       	ldi	r30, 0x7A	; 122
     506:	f0 e0       	ldi	r31, 0x00	; 0
     508:	80 81       	ld	r24, Z
     50a:	80 64       	ori	r24, 0x40	; 64
     50c:	80 83       	st	Z, r24
     50e:	80 81       	ld	r24, Z
     510:	84 ff       	sbrs	r24, 4
     512:	fd cf       	rjmp	.-6      	; 0x50e <ADC_Conversion+0x1c>
     514:	80 91 79 00 	lds	r24, 0x0079	; 0x800079 <__TEXT_REGION_LENGTH__+0x700079>
     518:	ea e7       	ldi	r30, 0x7A	; 122
     51a:	f0 e0       	ldi	r31, 0x00	; 0
     51c:	90 81       	ld	r25, Z
     51e:	90 61       	ori	r25, 0x10	; 16
     520:	90 83       	st	Z, r25
     522:	10 92 7b 00 	sts	0x007B, r1	; 0x80007b <__TEXT_REGION_LENGTH__+0x70007b>
     526:	08 95       	ret

00000528 <print_sensor>:
     528:	cf 93       	push	r28
     52a:	df 93       	push	r29
     52c:	d8 2f       	mov	r29, r24
     52e:	c6 2f       	mov	r28, r22
     530:	84 2f       	mov	r24, r20
     532:	df df       	rcall	.-66     	; 0x4f2 <ADC_Conversion>
     534:	80 93 fd 02 	sts	0x02FD, r24	; 0x8002fd <ADC_Value>
     538:	48 2f       	mov	r20, r24
     53a:	50 e0       	ldi	r21, 0x00	; 0
     53c:	6c 2f       	mov	r22, r28
     53e:	70 e0       	ldi	r23, 0x00	; 0
     540:	23 e0       	ldi	r18, 0x03	; 3
     542:	30 e0       	ldi	r19, 0x00	; 0
     544:	8d 2f       	mov	r24, r29
     546:	90 e0       	ldi	r25, 0x00	; 0
     548:	64 df       	rcall	.-312    	; 0x412 <lcd_print>
     54a:	df 91       	pop	r29
     54c:	cf 91       	pop	r28
     54e:	08 95       	ret

00000550 <buzzer_on>:
     550:	14 9a       	sbi	0x02, 4	; 2
     552:	08 95       	ret

00000554 <buzzer_off>:
     554:	14 98       	cbi	0x02, 4	; 2
     556:	08 95       	ret

00000558 <motion_pin_config>:
     558:	81 b1       	in	r24, 0x01	; 1
     55a:	8f ef       	ldi	r24, 0xFF	; 255
     55c:	81 b9       	out	0x01, r24	; 1
     55e:	82 b1       	in	r24, 0x02	; 2
     560:	80 7f       	andi	r24, 0xF0	; 240
     562:	82 b9       	out	0x02, r24	; 2
     564:	ea e0       	ldi	r30, 0x0A	; 10
     566:	f1 e0       	ldi	r31, 0x01	; 1
     568:	80 81       	ld	r24, Z
     56a:	88 61       	ori	r24, 0x18	; 24
     56c:	80 83       	st	Z, r24
     56e:	eb e0       	ldi	r30, 0x0B	; 11
     570:	f1 e0       	ldi	r31, 0x01	; 1
     572:	80 81       	ld	r24, Z
     574:	88 61       	ori	r24, 0x18	; 24
     576:	80 83       	st	Z, r24
     578:	08 95       	ret

0000057a <port_init>:
     57a:	0d de       	rcall	.-998    	; 0x196 <color_sensor_pin_config>
     57c:	13 de       	rcall	.-986    	; 0x1a4 <color_sensor_pin_interrupt_init>
     57e:	68 de       	rcall	.-816    	; 0x250 <lcd_port_config>
     580:	6d df       	rcall	.-294    	; 0x45c <adc_pin_config>
     582:	ea df       	rcall	.-44     	; 0x558 <motion_pin_config>
     584:	02 de       	rcall	.-1020   	; 0x18a <rgb_port_config>
     586:	2d de       	rcall	.-934    	; 0x1e2 <servo1_pin_config>
     588:	2f ce       	rjmp	.-930    	; 0x1e8 <servo2_pin_config>
     58a:	08 95       	ret

0000058c <init_devices>:
     58c:	f8 94       	cli
     58e:	f5 df       	rcall	.-22     	; 0x57a <port_init>
     590:	6c df       	rcall	.-296    	; 0x46a <adc_init>
     592:	78 df       	rcall	.-272    	; 0x484 <timer5_init>
     594:	2c de       	rcall	.-936    	; 0x1ee <timer3_init>
     596:	78 94       	sei
     598:	08 95       	ret

0000059a <blackline_data>:
     59a:	81 e0       	ldi	r24, 0x01	; 1
     59c:	aa df       	rcall	.-172    	; 0x4f2 <ADC_Conversion>
     59e:	80 93 72 02 	sts	0x0272, r24	; 0x800272 <Left_white_line>
     5a2:	82 e0       	ldi	r24, 0x02	; 2
     5a4:	a6 df       	rcall	.-180    	; 0x4f2 <ADC_Conversion>
     5a6:	80 93 71 02 	sts	0x0271, r24	; 0x800271 <Center_white_line>
     5aa:	83 e0       	ldi	r24, 0x03	; 3
     5ac:	a2 df       	rcall	.-188    	; 0x4f2 <ADC_Conversion>
     5ae:	80 93 70 02 	sts	0x0270, r24	; 0x800270 <Right_white_line>
     5b2:	43 e0       	ldi	r20, 0x03	; 3
     5b4:	61 e0       	ldi	r22, 0x01	; 1
     5b6:	81 e0       	ldi	r24, 0x01	; 1
     5b8:	b7 df       	rcall	.-146    	; 0x528 <print_sensor>
     5ba:	42 e0       	ldi	r20, 0x02	; 2
     5bc:	65 e0       	ldi	r22, 0x05	; 5
     5be:	81 e0       	ldi	r24, 0x01	; 1
     5c0:	b3 df       	rcall	.-154    	; 0x528 <print_sensor>
     5c2:	41 e0       	ldi	r20, 0x01	; 1
     5c4:	69 e0       	ldi	r22, 0x09	; 9
     5c6:	81 e0       	ldi	r24, 0x01	; 1
     5c8:	af cf       	rjmp	.-162    	; 0x528 <print_sensor>
     5ca:	08 95       	ret

000005cc <blackline>:
     5cc:	ef 92       	push	r14
     5ce:	ff 92       	push	r15
     5d0:	0f 93       	push	r16
     5d2:	1f 93       	push	r17
     5d4:	cf 93       	push	r28
     5d6:	df 93       	push	r29
     5d8:	e0 df       	rcall	.-64     	; 0x59a <blackline_data>
     5da:	80 91 72 02 	lds	r24, 0x0272	; 0x800272 <Left_white_line>
     5de:	87 39       	cpi	r24, 0x97	; 151
     5e0:	e8 f1       	brcs	.+122    	; 0x65c <blackline+0x90>
     5e2:	90 91 71 02 	lds	r25, 0x0271	; 0x800271 <Center_white_line>
     5e6:	96 39       	cpi	r25, 0x96	; 150
     5e8:	c8 f5       	brcc	.+114    	; 0x65c <blackline+0x90>
     5ea:	90 91 70 02 	lds	r25, 0x0270	; 0x800270 <Right_white_line>
     5ee:	96 39       	cpi	r25, 0x96	; 150
     5f0:	a8 f5       	brcc	.+106    	; 0x65c <blackline+0x90>
     5f2:	0f 2e       	mov	r0, r31
     5f4:	f8 e2       	ldi	r31, 0x28	; 40
     5f6:	ef 2e       	mov	r14, r31
     5f8:	ff 24       	eor	r15, r15
     5fa:	f3 94       	inc	r15
     5fc:	f0 2d       	mov	r31, r0
     5fe:	0a e2       	ldi	r16, 0x2A	; 42
     600:	11 e0       	ldi	r17, 0x01	; 1
     602:	c8 ec       	ldi	r28, 0xC8	; 200
     604:	80 91 72 02 	lds	r24, 0x0272	; 0x800272 <Left_white_line>
     608:	86 39       	cpi	r24, 0x96	; 150
     60a:	50 f4       	brcc	.+20     	; 0x620 <blackline+0x54>
     60c:	90 91 71 02 	lds	r25, 0x0271	; 0x800271 <Center_white_line>
     610:	97 39       	cpi	r25, 0x97	; 151
     612:	30 f0       	brcs	.+12     	; 0x620 <blackline+0x54>
     614:	90 91 70 02 	lds	r25, 0x0270	; 0x800270 <Right_white_line>
     618:	96 39       	cpi	r25, 0x96	; 150
     61a:	08 f0       	brcs	.+2      	; 0x61e <blackline+0x52>
     61c:	87 c0       	rjmp	.+270    	; 0x72c <blackline+0x160>
     61e:	9a c0       	rjmp	.+308    	; 0x754 <blackline+0x188>
     620:	87 39       	cpi	r24, 0x97	; 151
     622:	08 f4       	brcc	.+2      	; 0x626 <blackline+0x5a>
     624:	87 c0       	rjmp	.+270    	; 0x734 <blackline+0x168>
     626:	90 91 71 02 	lds	r25, 0x0271	; 0x800271 <Center_white_line>
     62a:	97 39       	cpi	r25, 0x97	; 151
     62c:	08 f0       	brcs	.+2      	; 0x630 <blackline+0x64>
     62e:	92 c0       	rjmp	.+292    	; 0x754 <blackline+0x188>
     630:	90 91 70 02 	lds	r25, 0x0270	; 0x800270 <Right_white_line>
     634:	97 39       	cpi	r25, 0x97	; 151
     636:	30 f0       	brcs	.+12     	; 0x644 <blackline+0x78>
     638:	80 91 71 02 	lds	r24, 0x0271	; 0x800271 <Center_white_line>
     63c:	87 39       	cpi	r24, 0x97	; 151
     63e:	08 f4       	brcc	.+2      	; 0x642 <blackline+0x76>
     640:	5e c0       	rjmp	.+188    	; 0x6fe <blackline+0x132>
     642:	88 c0       	rjmp	.+272    	; 0x754 <blackline+0x188>
     644:	87 39       	cpi	r24, 0x97	; 151
     646:	08 f4       	brcc	.+2      	; 0x64a <blackline+0x7e>
     648:	5a c0       	rjmp	.+180    	; 0x6fe <blackline+0x132>
     64a:	80 91 71 02 	lds	r24, 0x0271	; 0x800271 <Center_white_line>
     64e:	87 39       	cpi	r24, 0x97	; 151
     650:	08 f4       	brcc	.+2      	; 0x654 <blackline+0x88>
     652:	55 c0       	rjmp	.+170    	; 0x6fe <blackline+0x132>
     654:	97 39       	cpi	r25, 0x97	; 151
     656:	08 f4       	brcc	.+2      	; 0x65a <blackline+0x8e>
     658:	52 c0       	rjmp	.+164    	; 0x6fe <blackline+0x132>
     65a:	7c c0       	rjmp	.+248    	; 0x754 <blackline+0x188>
     65c:	86 39       	cpi	r24, 0x96	; 150
     65e:	08 f0       	brcs	.+2      	; 0x662 <blackline+0x96>
     660:	47 c0       	rjmp	.+142    	; 0x6f0 <blackline+0x124>
     662:	80 91 71 02 	lds	r24, 0x0271	; 0x800271 <Center_white_line>
     666:	87 39       	cpi	r24, 0x97	; 151
     668:	60 f0       	brcs	.+24     	; 0x682 <blackline+0xb6>
     66a:	90 91 70 02 	lds	r25, 0x0270	; 0x800270 <Right_white_line>
     66e:	96 39       	cpi	r25, 0x96	; 150
     670:	40 f4       	brcc	.+16     	; 0x682 <blackline+0xb6>
     672:	93 df       	rcall	.-218    	; 0x59a <blackline_data>
     674:	28 df       	rcall	.-432    	; 0x4c6 <forward>
     676:	8f ef       	ldi	r24, 0xFF	; 255
     678:	80 93 28 01 	sts	0x0128, r24	; 0x800128 <__TEXT_REGION_LENGTH__+0x700128>
     67c:	80 93 2a 01 	sts	0x012A, r24	; 0x80012a <__TEXT_REGION_LENGTH__+0x70012a>
     680:	69 c0       	rjmp	.+210    	; 0x754 <blackline+0x188>
     682:	86 39       	cpi	r24, 0x96	; 150
     684:	a8 f5       	brcc	.+106    	; 0x6f0 <blackline+0x124>
     686:	80 91 70 02 	lds	r24, 0x0270	; 0x800270 <Right_white_line>
     68a:	87 39       	cpi	r24, 0x97	; 151
     68c:	88 f1       	brcs	.+98     	; 0x6f0 <blackline+0x124>
     68e:	0f 2e       	mov	r0, r31
     690:	f8 e2       	ldi	r31, 0x28	; 40
     692:	ef 2e       	mov	r14, r31
     694:	ff 24       	eor	r15, r15
     696:	f3 94       	inc	r15
     698:	f0 2d       	mov	r31, r0
     69a:	1c ed       	ldi	r17, 0xDC	; 220
     69c:	ca e2       	ldi	r28, 0x2A	; 42
     69e:	d1 e0       	ldi	r29, 0x01	; 1
     6a0:	80 91 72 02 	lds	r24, 0x0272	; 0x800272 <Left_white_line>
     6a4:	86 39       	cpi	r24, 0x96	; 150
     6a6:	50 f4       	brcc	.+20     	; 0x6bc <blackline+0xf0>
     6a8:	90 91 71 02 	lds	r25, 0x0271	; 0x800271 <Center_white_line>
     6ac:	97 39       	cpi	r25, 0x97	; 151
     6ae:	30 f0       	brcs	.+12     	; 0x6bc <blackline+0xf0>
     6b0:	90 91 70 02 	lds	r25, 0x0270	; 0x800270 <Right_white_line>
     6b4:	96 39       	cpi	r25, 0x96	; 150
     6b6:	08 f0       	brcs	.+2      	; 0x6ba <blackline+0xee>
     6b8:	43 c0       	rjmp	.+134    	; 0x740 <blackline+0x174>
     6ba:	4c c0       	rjmp	.+152    	; 0x754 <blackline+0x188>
     6bc:	87 39       	cpi	r24, 0x97	; 151
     6be:	08 f4       	brcc	.+2      	; 0x6c2 <blackline+0xf6>
     6c0:	43 c0       	rjmp	.+134    	; 0x748 <blackline+0x17c>
     6c2:	90 91 71 02 	lds	r25, 0x0271	; 0x800271 <Center_white_line>
     6c6:	97 39       	cpi	r25, 0x97	; 151
     6c8:	08 f0       	brcs	.+2      	; 0x6cc <blackline+0x100>
     6ca:	44 c0       	rjmp	.+136    	; 0x754 <blackline+0x188>
     6cc:	90 91 70 02 	lds	r25, 0x0270	; 0x800270 <Right_white_line>
     6d0:	97 39       	cpi	r25, 0x97	; 151
     6d2:	28 f0       	brcs	.+10     	; 0x6de <blackline+0x112>
     6d4:	80 91 71 02 	lds	r24, 0x0271	; 0x800271 <Center_white_line>
     6d8:	87 39       	cpi	r24, 0x97	; 151
     6da:	e8 f0       	brcs	.+58     	; 0x716 <blackline+0x14a>
     6dc:	3b c0       	rjmp	.+118    	; 0x754 <blackline+0x188>
     6de:	87 39       	cpi	r24, 0x97	; 151
     6e0:	d0 f0       	brcs	.+52     	; 0x716 <blackline+0x14a>
     6e2:	80 91 71 02 	lds	r24, 0x0271	; 0x800271 <Center_white_line>
     6e6:	87 39       	cpi	r24, 0x97	; 151
     6e8:	b0 f0       	brcs	.+44     	; 0x716 <blackline+0x14a>
     6ea:	97 39       	cpi	r25, 0x97	; 151
     6ec:	a0 f0       	brcs	.+40     	; 0x716 <blackline+0x14a>
     6ee:	32 c0       	rjmp	.+100    	; 0x754 <blackline+0x188>
     6f0:	ea de       	rcall	.-556    	; 0x4c6 <forward>
     6f2:	8f ef       	ldi	r24, 0xFF	; 255
     6f4:	80 93 28 01 	sts	0x0128, r24	; 0x800128 <__TEXT_REGION_LENGTH__+0x700128>
     6f8:	80 93 2a 01 	sts	0x012A, r24	; 0x80012a <__TEXT_REGION_LENGTH__+0x70012a>
     6fc:	2b c0       	rjmp	.+86     	; 0x754 <blackline+0x188>
     6fe:	4d df       	rcall	.-358    	; 0x59a <blackline_data>
     700:	e2 de       	rcall	.-572    	; 0x4c6 <forward>
     702:	f7 01       	movw	r30, r14
     704:	10 82       	st	Z, r1
     706:	f8 01       	movw	r30, r16
     708:	c0 83       	st	Z, r28
     70a:	6e e1       	ldi	r22, 0x1E	; 30
     70c:	70 e0       	ldi	r23, 0x00	; 0
     70e:	80 e0       	ldi	r24, 0x00	; 0
     710:	90 e0       	ldi	r25, 0x00	; 0
     712:	1c dd       	rcall	.-1480   	; 0x14c <delay>
     714:	77 cf       	rjmp	.-274    	; 0x604 <blackline+0x38>
     716:	41 df       	rcall	.-382    	; 0x59a <blackline_data>
     718:	d6 de       	rcall	.-596    	; 0x4c6 <forward>
     71a:	f7 01       	movw	r30, r14
     71c:	10 83       	st	Z, r17
     71e:	18 82       	st	Y, r1
     720:	6e e1       	ldi	r22, 0x1E	; 30
     722:	70 e0       	ldi	r23, 0x00	; 0
     724:	80 e0       	ldi	r24, 0x00	; 0
     726:	90 e0       	ldi	r25, 0x00	; 0
     728:	11 dd       	rcall	.-1502   	; 0x14c <delay>
     72a:	ba cf       	rjmp	.-140    	; 0x6a0 <blackline+0xd4>
     72c:	87 39       	cpi	r24, 0x97	; 151
     72e:	08 f4       	brcc	.+2      	; 0x732 <blackline+0x166>
     730:	7f cf       	rjmp	.-258    	; 0x630 <blackline+0x64>
     732:	10 c0       	rjmp	.+32     	; 0x754 <blackline+0x188>
     734:	80 91 70 02 	lds	r24, 0x0270	; 0x800270 <Right_white_line>
     738:	87 39       	cpi	r24, 0x97	; 151
     73a:	08 f0       	brcs	.+2      	; 0x73e <blackline+0x172>
     73c:	7d cf       	rjmp	.-262    	; 0x638 <blackline+0x6c>
     73e:	df cf       	rjmp	.-66     	; 0x6fe <blackline+0x132>
     740:	87 39       	cpi	r24, 0x97	; 151
     742:	08 f4       	brcc	.+2      	; 0x746 <blackline+0x17a>
     744:	c3 cf       	rjmp	.-122    	; 0x6cc <blackline+0x100>
     746:	06 c0       	rjmp	.+12     	; 0x754 <blackline+0x188>
     748:	80 91 70 02 	lds	r24, 0x0270	; 0x800270 <Right_white_line>
     74c:	87 39       	cpi	r24, 0x97	; 151
     74e:	08 f0       	brcs	.+2      	; 0x752 <blackline+0x186>
     750:	c1 cf       	rjmp	.-126    	; 0x6d4 <blackline+0x108>
     752:	e1 cf       	rjmp	.-62     	; 0x716 <blackline+0x14a>
     754:	80 e0       	ldi	r24, 0x00	; 0
     756:	90 e0       	ldi	r25, 0x00	; 0
     758:	df 91       	pop	r29
     75a:	cf 91       	pop	r28
     75c:	1f 91       	pop	r17
     75e:	0f 91       	pop	r16
     760:	ff 90       	pop	r15
     762:	ef 90       	pop	r14
     764:	08 95       	ret

00000766 <blackline_lifting>:
     766:	ef 92       	push	r14
     768:	ff 92       	push	r15
     76a:	0f 93       	push	r16
     76c:	1f 93       	push	r17
     76e:	cf 93       	push	r28
     770:	df 93       	push	r29
     772:	13 df       	rcall	.-474    	; 0x59a <blackline_data>
     774:	80 91 72 02 	lds	r24, 0x0272	; 0x800272 <Left_white_line>
     778:	87 39       	cpi	r24, 0x97	; 151
     77a:	e8 f1       	brcs	.+122    	; 0x7f6 <blackline_lifting+0x90>
     77c:	90 91 71 02 	lds	r25, 0x0271	; 0x800271 <Center_white_line>
     780:	96 39       	cpi	r25, 0x96	; 150
     782:	c8 f5       	brcc	.+114    	; 0x7f6 <blackline_lifting+0x90>
     784:	90 91 70 02 	lds	r25, 0x0270	; 0x800270 <Right_white_line>
     788:	96 39       	cpi	r25, 0x96	; 150
     78a:	a8 f5       	brcc	.+106    	; 0x7f6 <blackline_lifting+0x90>
     78c:	0f 2e       	mov	r0, r31
     78e:	f8 e2       	ldi	r31, 0x28	; 40
     790:	ef 2e       	mov	r14, r31
     792:	ff 24       	eor	r15, r15
     794:	f3 94       	inc	r15
     796:	f0 2d       	mov	r31, r0
     798:	0a e2       	ldi	r16, 0x2A	; 42
     79a:	11 e0       	ldi	r17, 0x01	; 1
     79c:	c2 e8       	ldi	r28, 0x82	; 130
     79e:	80 91 72 02 	lds	r24, 0x0272	; 0x800272 <Left_white_line>
     7a2:	86 39       	cpi	r24, 0x96	; 150
     7a4:	50 f4       	brcc	.+20     	; 0x7ba <blackline_lifting+0x54>
     7a6:	90 91 71 02 	lds	r25, 0x0271	; 0x800271 <Center_white_line>
     7aa:	97 39       	cpi	r25, 0x97	; 151
     7ac:	30 f0       	brcs	.+12     	; 0x7ba <blackline_lifting+0x54>
     7ae:	90 91 70 02 	lds	r25, 0x0270	; 0x800270 <Right_white_line>
     7b2:	96 39       	cpi	r25, 0x96	; 150
     7b4:	08 f0       	brcs	.+2      	; 0x7b8 <blackline_lifting+0x52>
     7b6:	87 c0       	rjmp	.+270    	; 0x8c6 <blackline_lifting+0x160>
     7b8:	9a c0       	rjmp	.+308    	; 0x8ee <blackline_lifting+0x188>
     7ba:	87 39       	cpi	r24, 0x97	; 151
     7bc:	08 f4       	brcc	.+2      	; 0x7c0 <blackline_lifting+0x5a>
     7be:	87 c0       	rjmp	.+270    	; 0x8ce <blackline_lifting+0x168>
     7c0:	90 91 71 02 	lds	r25, 0x0271	; 0x800271 <Center_white_line>
     7c4:	97 39       	cpi	r25, 0x97	; 151
     7c6:	08 f0       	brcs	.+2      	; 0x7ca <blackline_lifting+0x64>
     7c8:	92 c0       	rjmp	.+292    	; 0x8ee <blackline_lifting+0x188>
     7ca:	90 91 70 02 	lds	r25, 0x0270	; 0x800270 <Right_white_line>
     7ce:	97 39       	cpi	r25, 0x97	; 151
     7d0:	30 f0       	brcs	.+12     	; 0x7de <blackline_lifting+0x78>
     7d2:	80 91 71 02 	lds	r24, 0x0271	; 0x800271 <Center_white_line>
     7d6:	87 39       	cpi	r24, 0x97	; 151
     7d8:	08 f4       	brcc	.+2      	; 0x7dc <blackline_lifting+0x76>
     7da:	5e c0       	rjmp	.+188    	; 0x898 <blackline_lifting+0x132>
     7dc:	88 c0       	rjmp	.+272    	; 0x8ee <blackline_lifting+0x188>
     7de:	87 39       	cpi	r24, 0x97	; 151
     7e0:	08 f4       	brcc	.+2      	; 0x7e4 <blackline_lifting+0x7e>
     7e2:	5a c0       	rjmp	.+180    	; 0x898 <blackline_lifting+0x132>
     7e4:	80 91 71 02 	lds	r24, 0x0271	; 0x800271 <Center_white_line>
     7e8:	87 39       	cpi	r24, 0x97	; 151
     7ea:	08 f4       	brcc	.+2      	; 0x7ee <blackline_lifting+0x88>
     7ec:	55 c0       	rjmp	.+170    	; 0x898 <blackline_lifting+0x132>
     7ee:	97 39       	cpi	r25, 0x97	; 151
     7f0:	08 f4       	brcc	.+2      	; 0x7f4 <blackline_lifting+0x8e>
     7f2:	52 c0       	rjmp	.+164    	; 0x898 <blackline_lifting+0x132>
     7f4:	7c c0       	rjmp	.+248    	; 0x8ee <blackline_lifting+0x188>
     7f6:	86 39       	cpi	r24, 0x96	; 150
     7f8:	08 f0       	brcs	.+2      	; 0x7fc <blackline_lifting+0x96>
     7fa:	47 c0       	rjmp	.+142    	; 0x88a <blackline_lifting+0x124>
     7fc:	80 91 71 02 	lds	r24, 0x0271	; 0x800271 <Center_white_line>
     800:	87 39       	cpi	r24, 0x97	; 151
     802:	60 f0       	brcs	.+24     	; 0x81c <blackline_lifting+0xb6>
     804:	90 91 70 02 	lds	r25, 0x0270	; 0x800270 <Right_white_line>
     808:	96 39       	cpi	r25, 0x96	; 150
     80a:	40 f4       	brcc	.+16     	; 0x81c <blackline_lifting+0xb6>
     80c:	c6 de       	rcall	.-628    	; 0x59a <blackline_data>
     80e:	5b de       	rcall	.-842    	; 0x4c6 <forward>
     810:	82 e8       	ldi	r24, 0x82	; 130
     812:	80 93 28 01 	sts	0x0128, r24	; 0x800128 <__TEXT_REGION_LENGTH__+0x700128>
     816:	80 93 2a 01 	sts	0x012A, r24	; 0x80012a <__TEXT_REGION_LENGTH__+0x70012a>
     81a:	69 c0       	rjmp	.+210    	; 0x8ee <blackline_lifting+0x188>
     81c:	86 39       	cpi	r24, 0x96	; 150
     81e:	a8 f5       	brcc	.+106    	; 0x88a <blackline_lifting+0x124>
     820:	80 91 70 02 	lds	r24, 0x0270	; 0x800270 <Right_white_line>
     824:	87 39       	cpi	r24, 0x97	; 151
     826:	88 f1       	brcs	.+98     	; 0x88a <blackline_lifting+0x124>
     828:	0f 2e       	mov	r0, r31
     82a:	f8 e2       	ldi	r31, 0x28	; 40
     82c:	ef 2e       	mov	r14, r31
     82e:	ff 24       	eor	r15, r15
     830:	f3 94       	inc	r15
     832:	f0 2d       	mov	r31, r0
     834:	12 e8       	ldi	r17, 0x82	; 130
     836:	ca e2       	ldi	r28, 0x2A	; 42
     838:	d1 e0       	ldi	r29, 0x01	; 1
     83a:	80 91 72 02 	lds	r24, 0x0272	; 0x800272 <Left_white_line>
     83e:	86 39       	cpi	r24, 0x96	; 150
     840:	50 f4       	brcc	.+20     	; 0x856 <blackline_lifting+0xf0>
     842:	90 91 71 02 	lds	r25, 0x0271	; 0x800271 <Center_white_line>
     846:	97 39       	cpi	r25, 0x97	; 151
     848:	30 f0       	brcs	.+12     	; 0x856 <blackline_lifting+0xf0>
     84a:	90 91 70 02 	lds	r25, 0x0270	; 0x800270 <Right_white_line>
     84e:	96 39       	cpi	r25, 0x96	; 150
     850:	08 f0       	brcs	.+2      	; 0x854 <blackline_lifting+0xee>
     852:	43 c0       	rjmp	.+134    	; 0x8da <blackline_lifting+0x174>
     854:	4c c0       	rjmp	.+152    	; 0x8ee <blackline_lifting+0x188>
     856:	87 39       	cpi	r24, 0x97	; 151
     858:	08 f4       	brcc	.+2      	; 0x85c <blackline_lifting+0xf6>
     85a:	43 c0       	rjmp	.+134    	; 0x8e2 <blackline_lifting+0x17c>
     85c:	90 91 71 02 	lds	r25, 0x0271	; 0x800271 <Center_white_line>
     860:	97 39       	cpi	r25, 0x97	; 151
     862:	08 f0       	brcs	.+2      	; 0x866 <blackline_lifting+0x100>
     864:	44 c0       	rjmp	.+136    	; 0x8ee <blackline_lifting+0x188>
     866:	90 91 70 02 	lds	r25, 0x0270	; 0x800270 <Right_white_line>
     86a:	97 39       	cpi	r25, 0x97	; 151
     86c:	28 f0       	brcs	.+10     	; 0x878 <blackline_lifting+0x112>
     86e:	80 91 71 02 	lds	r24, 0x0271	; 0x800271 <Center_white_line>
     872:	87 39       	cpi	r24, 0x97	; 151
     874:	e8 f0       	brcs	.+58     	; 0x8b0 <blackline_lifting+0x14a>
     876:	3b c0       	rjmp	.+118    	; 0x8ee <blackline_lifting+0x188>
     878:	87 39       	cpi	r24, 0x97	; 151
     87a:	d0 f0       	brcs	.+52     	; 0x8b0 <blackline_lifting+0x14a>
     87c:	80 91 71 02 	lds	r24, 0x0271	; 0x800271 <Center_white_line>
     880:	87 39       	cpi	r24, 0x97	; 151
     882:	b0 f0       	brcs	.+44     	; 0x8b0 <blackline_lifting+0x14a>
     884:	97 39       	cpi	r25, 0x97	; 151
     886:	a0 f0       	brcs	.+40     	; 0x8b0 <blackline_lifting+0x14a>
     888:	32 c0       	rjmp	.+100    	; 0x8ee <blackline_lifting+0x188>
     88a:	1d de       	rcall	.-966    	; 0x4c6 <forward>
     88c:	82 e8       	ldi	r24, 0x82	; 130
     88e:	80 93 28 01 	sts	0x0128, r24	; 0x800128 <__TEXT_REGION_LENGTH__+0x700128>
     892:	80 93 2a 01 	sts	0x012A, r24	; 0x80012a <__TEXT_REGION_LENGTH__+0x70012a>
     896:	2b c0       	rjmp	.+86     	; 0x8ee <blackline_lifting+0x188>
     898:	80 de       	rcall	.-768    	; 0x59a <blackline_data>
     89a:	15 de       	rcall	.-982    	; 0x4c6 <forward>
     89c:	f7 01       	movw	r30, r14
     89e:	10 82       	st	Z, r1
     8a0:	f8 01       	movw	r30, r16
     8a2:	c0 83       	st	Z, r28
     8a4:	6e e1       	ldi	r22, 0x1E	; 30
     8a6:	70 e0       	ldi	r23, 0x00	; 0
     8a8:	80 e0       	ldi	r24, 0x00	; 0
     8aa:	90 e0       	ldi	r25, 0x00	; 0
     8ac:	4f dc       	rcall	.-1890   	; 0x14c <delay>
     8ae:	77 cf       	rjmp	.-274    	; 0x79e <blackline_lifting+0x38>
     8b0:	74 de       	rcall	.-792    	; 0x59a <blackline_data>
     8b2:	09 de       	rcall	.-1006   	; 0x4c6 <forward>
     8b4:	f7 01       	movw	r30, r14
     8b6:	10 83       	st	Z, r17
     8b8:	18 82       	st	Y, r1
     8ba:	6e e1       	ldi	r22, 0x1E	; 30
     8bc:	70 e0       	ldi	r23, 0x00	; 0
     8be:	80 e0       	ldi	r24, 0x00	; 0
     8c0:	90 e0       	ldi	r25, 0x00	; 0
     8c2:	44 dc       	rcall	.-1912   	; 0x14c <delay>
     8c4:	ba cf       	rjmp	.-140    	; 0x83a <blackline_lifting+0xd4>
     8c6:	87 39       	cpi	r24, 0x97	; 151
     8c8:	08 f4       	brcc	.+2      	; 0x8cc <blackline_lifting+0x166>
     8ca:	7f cf       	rjmp	.-258    	; 0x7ca <blackline_lifting+0x64>
     8cc:	10 c0       	rjmp	.+32     	; 0x8ee <blackline_lifting+0x188>
     8ce:	80 91 70 02 	lds	r24, 0x0270	; 0x800270 <Right_white_line>
     8d2:	87 39       	cpi	r24, 0x97	; 151
     8d4:	08 f0       	brcs	.+2      	; 0x8d8 <blackline_lifting+0x172>
     8d6:	7d cf       	rjmp	.-262    	; 0x7d2 <blackline_lifting+0x6c>
     8d8:	df cf       	rjmp	.-66     	; 0x898 <blackline_lifting+0x132>
     8da:	87 39       	cpi	r24, 0x97	; 151
     8dc:	08 f4       	brcc	.+2      	; 0x8e0 <blackline_lifting+0x17a>
     8de:	c3 cf       	rjmp	.-122    	; 0x866 <blackline_lifting+0x100>
     8e0:	06 c0       	rjmp	.+12     	; 0x8ee <blackline_lifting+0x188>
     8e2:	80 91 70 02 	lds	r24, 0x0270	; 0x800270 <Right_white_line>
     8e6:	87 39       	cpi	r24, 0x97	; 151
     8e8:	08 f0       	brcs	.+2      	; 0x8ec <blackline_lifting+0x186>
     8ea:	c1 cf       	rjmp	.-126    	; 0x86e <blackline_lifting+0x108>
     8ec:	e1 cf       	rjmp	.-62     	; 0x8b0 <blackline_lifting+0x14a>
     8ee:	80 e0       	ldi	r24, 0x00	; 0
     8f0:	90 e0       	ldi	r25, 0x00	; 0
     8f2:	df 91       	pop	r29
     8f4:	cf 91       	pop	r28
     8f6:	1f 91       	pop	r17
     8f8:	0f 91       	pop	r16
     8fa:	ff 90       	pop	r15
     8fc:	ef 90       	pop	r14
     8fe:	08 95       	ret

00000900 <node>:
     900:	27 de       	rcall	.-946    	; 0x550 <buzzer_on>
     902:	64 e6       	ldi	r22, 0x64	; 100
     904:	70 e0       	ldi	r23, 0x00	; 0
     906:	80 e0       	ldi	r24, 0x00	; 0
     908:	90 e0       	ldi	r25, 0x00	; 0
     90a:	20 dc       	rcall	.-1984   	; 0x14c <delay>
     90c:	23 de       	rcall	.-954    	; 0x554 <buzzer_off>
     90e:	64 e6       	ldi	r22, 0x64	; 100
     910:	70 e0       	ldi	r23, 0x00	; 0
     912:	80 e0       	ldi	r24, 0x00	; 0
     914:	90 e0       	ldi	r25, 0x00	; 0
     916:	1a cc       	rjmp	.-1996   	; 0x14c <delay>
     918:	08 95       	ret

0000091a <check_condition>:
     91a:	00 97       	sbiw	r24, 0x00	; 0
     91c:	d1 f4       	brne	.+52     	; 0x952 <check_condition+0x38>
     91e:	61 30       	cpi	r22, 0x01	; 1
     920:	71 05       	cpc	r23, r1
     922:	51 f4       	brne	.+20     	; 0x938 <check_condition+0x1e>
     924:	42 30       	cpi	r20, 0x02	; 2
     926:	51 05       	cpc	r21, r1
     928:	09 f4       	brne	.+2      	; 0x92c <check_condition+0x12>
     92a:	15 c7       	rjmp	.+3626   	; 0x1756 <check_condition+0xe3c>
     92c:	4c 30       	cpi	r20, 0x0C	; 12
     92e:	51 05       	cpc	r21, r1
     930:	11 f0       	breq	.+4      	; 0x936 <check_condition+0x1c>
     932:	0c 94 2f 0e 	jmp	0x1c5e	; 0x1c5e <check_condition+0x1344>
     936:	12 c7       	rjmp	.+3620   	; 0x175c <check_condition+0xe42>
     938:	6d 30       	cpi	r22, 0x0D	; 13
     93a:	71 05       	cpc	r23, r1
     93c:	09 f0       	breq	.+2      	; 0x940 <check_condition+0x26>
     93e:	f4 c4       	rjmp	.+2536   	; 0x1328 <check_condition+0xa0e>
     940:	4c 30       	cpi	r20, 0x0C	; 12
     942:	51 05       	cpc	r21, r1
     944:	09 f4       	brne	.+2      	; 0x948 <check_condition+0x2e>
     946:	0d c7       	rjmp	.+3610   	; 0x1762 <check_condition+0xe48>
     948:	4e 30       	cpi	r20, 0x0E	; 14
     94a:	51 05       	cpc	r21, r1
     94c:	09 f0       	breq	.+2      	; 0x950 <check_condition+0x36>
     94e:	02 c7       	rjmp	.+3588   	; 0x1754 <check_condition+0xe3a>
     950:	0b c7       	rjmp	.+3606   	; 0x1768 <check_condition+0xe4e>
     952:	81 30       	cpi	r24, 0x01	; 1
     954:	91 05       	cpc	r25, r1
     956:	11 f5       	brne	.+68     	; 0x99c <check_condition+0x82>
     958:	61 15       	cp	r22, r1
     95a:	71 05       	cpc	r23, r1
     95c:	31 f4       	brne	.+12     	; 0x96a <check_condition+0x50>
     95e:	4d 30       	cpi	r20, 0x0D	; 13
     960:	51 05       	cpc	r21, r1
     962:	11 f0       	breq	.+4      	; 0x968 <check_condition+0x4e>
     964:	0c 94 33 0e 	jmp	0x1c66	; 0x1c66 <check_condition+0x134c>
     968:	02 c7       	rjmp	.+3588   	; 0x176e <check_condition+0xe54>
     96a:	62 30       	cpi	r22, 0x02	; 2
     96c:	71 05       	cpc	r23, r1
     96e:	21 f4       	brne	.+8      	; 0x978 <check_condition+0x5e>
     970:	43 30       	cpi	r20, 0x03	; 3
     972:	51 05       	cpc	r21, r1
     974:	71 f4       	brne	.+28     	; 0x992 <check_condition+0x78>
     976:	fe c6       	rjmp	.+3580   	; 0x1774 <check_condition+0xe5a>
     978:	6c 30       	cpi	r22, 0x0C	; 12
     97a:	71 05       	cpc	r23, r1
     97c:	09 f0       	breq	.+2      	; 0x980 <check_condition+0x66>
     97e:	e5 c4       	rjmp	.+2506   	; 0x134a <check_condition+0xa30>
     980:	4d 30       	cpi	r20, 0x0D	; 13
     982:	51 05       	cpc	r21, r1
     984:	09 f4       	brne	.+2      	; 0x988 <check_condition+0x6e>
     986:	f9 c6       	rjmp	.+3570   	; 0x177a <check_condition+0xe60>
     988:	4b 30       	cpi	r20, 0x0B	; 11
     98a:	51 05       	cpc	r21, r1
     98c:	09 f0       	breq	.+2      	; 0x990 <check_condition+0x76>
     98e:	e2 c6       	rjmp	.+3524   	; 0x1754 <check_condition+0xe3a>
     990:	f7 c6       	rjmp	.+3566   	; 0x1780 <check_condition+0xe66>
     992:	4e 31       	cpi	r20, 0x1E	; 30
     994:	51 05       	cpc	r21, r1
     996:	09 f0       	breq	.+2      	; 0x99a <check_condition+0x80>
     998:	dd c6       	rjmp	.+3514   	; 0x1754 <check_condition+0xe3a>
     99a:	f5 c6       	rjmp	.+3562   	; 0x1786 <check_condition+0xe6c>
     99c:	82 30       	cpi	r24, 0x02	; 2
     99e:	91 05       	cpc	r25, r1
     9a0:	d1 f4       	brne	.+52     	; 0x9d6 <check_condition+0xbc>
     9a2:	61 30       	cpi	r22, 0x01	; 1
     9a4:	71 05       	cpc	r23, r1
     9a6:	51 f4       	brne	.+20     	; 0x9bc <check_condition+0xa2>
     9a8:	41 15       	cp	r20, r1
     9aa:	51 05       	cpc	r21, r1
     9ac:	09 f4       	brne	.+2      	; 0x9b0 <check_condition+0x96>
     9ae:	ee c6       	rjmp	.+3548   	; 0x178c <check_condition+0xe72>
     9b0:	4c 30       	cpi	r20, 0x0C	; 12
     9b2:	51 05       	cpc	r21, r1
     9b4:	11 f0       	breq	.+4      	; 0x9ba <check_condition+0xa0>
     9b6:	0c 94 37 0e 	jmp	0x1c6e	; 0x1c6e <check_condition+0x1354>
     9ba:	eb c6       	rjmp	.+3542   	; 0x1792 <check_condition+0xe78>
     9bc:	63 30       	cpi	r22, 0x03	; 3
     9be:	71 05       	cpc	r23, r1
     9c0:	09 f0       	breq	.+2      	; 0x9c4 <check_condition+0xaa>
     9c2:	d5 c4       	rjmp	.+2474   	; 0x136e <check_condition+0xa54>
     9c4:	44 30       	cpi	r20, 0x04	; 4
     9c6:	51 05       	cpc	r21, r1
     9c8:	09 f4       	brne	.+2      	; 0x9cc <check_condition+0xb2>
     9ca:	e6 c6       	rjmp	.+3532   	; 0x1798 <check_condition+0xe7e>
     9cc:	4a 30       	cpi	r20, 0x0A	; 10
     9ce:	51 05       	cpc	r21, r1
     9d0:	09 f0       	breq	.+2      	; 0x9d4 <check_condition+0xba>
     9d2:	c0 c6       	rjmp	.+3456   	; 0x1754 <check_condition+0xe3a>
     9d4:	e4 c6       	rjmp	.+3528   	; 0x179e <check_condition+0xe84>
     9d6:	83 30       	cpi	r24, 0x03	; 3
     9d8:	91 05       	cpc	r25, r1
     9da:	19 f5       	brne	.+70     	; 0xa22 <check_condition+0x108>
     9dc:	62 30       	cpi	r22, 0x02	; 2
     9de:	71 05       	cpc	r23, r1
     9e0:	31 f4       	brne	.+12     	; 0x9ee <check_condition+0xd4>
     9e2:	41 30       	cpi	r20, 0x01	; 1
     9e4:	51 05       	cpc	r21, r1
     9e6:	11 f0       	breq	.+4      	; 0x9ec <check_condition+0xd2>
     9e8:	0c 94 3b 0e 	jmp	0x1c76	; 0x1c76 <check_condition+0x135c>
     9ec:	db c6       	rjmp	.+3510   	; 0x17a4 <check_condition+0xe8a>
     9ee:	64 30       	cpi	r22, 0x04	; 4
     9f0:	71 05       	cpc	r23, r1
     9f2:	31 f4       	brne	.+12     	; 0xa00 <check_condition+0xe6>
     9f4:	45 30       	cpi	r20, 0x05	; 5
     9f6:	51 05       	cpc	r21, r1
     9f8:	11 f0       	breq	.+4      	; 0x9fe <check_condition+0xe4>
     9fa:	0c 94 3f 0e 	jmp	0x1c7e	; 0x1c7e <check_condition+0x1364>
     9fe:	d5 c6       	rjmp	.+3498   	; 0x17aa <check_condition+0xe90>
     a00:	6a 30       	cpi	r22, 0x0A	; 10
     a02:	71 05       	cpc	r23, r1
     a04:	09 f0       	breq	.+2      	; 0xa08 <check_condition+0xee>
     a06:	c2 c4       	rjmp	.+2436   	; 0x138c <check_condition+0xa72>
     a08:	4b 30       	cpi	r20, 0x0B	; 11
     a0a:	51 05       	cpc	r21, r1
     a0c:	09 f4       	brne	.+2      	; 0xa10 <check_condition+0xf6>
     a0e:	d0 c6       	rjmp	.+3488   	; 0x17b0 <check_condition+0xe96>
     a10:	49 30       	cpi	r20, 0x09	; 9
     a12:	51 05       	cpc	r21, r1
     a14:	09 f4       	brne	.+2      	; 0xa18 <check_condition+0xfe>
     a16:	cf c6       	rjmp	.+3486   	; 0x17b6 <check_condition+0xe9c>
     a18:	4b 31       	cpi	r20, 0x1B	; 27
     a1a:	51 05       	cpc	r21, r1
     a1c:	09 f0       	breq	.+2      	; 0xa20 <check_condition+0x106>
     a1e:	9a c6       	rjmp	.+3380   	; 0x1754 <check_condition+0xe3a>
     a20:	cd c6       	rjmp	.+3482   	; 0x17bc <check_condition+0xea2>
     a22:	84 30       	cpi	r24, 0x04	; 4
     a24:	91 05       	cpc	r25, r1
     a26:	e9 f4       	brne	.+58     	; 0xa62 <check_condition+0x148>
     a28:	63 30       	cpi	r22, 0x03	; 3
     a2a:	71 05       	cpc	r23, r1
     a2c:	49 f4       	brne	.+18     	; 0xa40 <check_condition+0x126>
     a2e:	42 30       	cpi	r20, 0x02	; 2
     a30:	51 05       	cpc	r21, r1
     a32:	09 f4       	brne	.+2      	; 0xa36 <check_condition+0x11c>
     a34:	c6 c6       	rjmp	.+3468   	; 0x17c2 <check_condition+0xea8>
     a36:	4a 30       	cpi	r20, 0x0A	; 10
     a38:	51 05       	cpc	r21, r1
     a3a:	09 f0       	breq	.+2      	; 0xa3e <check_condition+0x124>
     a3c:	8b c6       	rjmp	.+3350   	; 0x1754 <check_condition+0xe3a>
     a3e:	c4 c6       	rjmp	.+3464   	; 0x17c8 <check_condition+0xeae>
     a40:	65 30       	cpi	r22, 0x05	; 5
     a42:	71 05       	cpc	r23, r1
     a44:	09 f0       	breq	.+2      	; 0xa48 <check_condition+0x12e>
     a46:	b0 c4       	rjmp	.+2400   	; 0x13a8 <check_condition+0xa8e>
     a48:	46 30       	cpi	r20, 0x06	; 6
     a4a:	51 05       	cpc	r21, r1
     a4c:	09 f4       	brne	.+2      	; 0xa50 <check_condition+0x136>
     a4e:	bf c6       	rjmp	.+3454   	; 0x17ce <check_condition+0xeb4>
     a50:	48 30       	cpi	r20, 0x08	; 8
     a52:	51 05       	cpc	r21, r1
     a54:	09 f4       	brne	.+2      	; 0xa58 <check_condition+0x13e>
     a56:	be c6       	rjmp	.+3452   	; 0x17d4 <check_condition+0xeba>
     a58:	40 32       	cpi	r20, 0x20	; 32
     a5a:	51 05       	cpc	r21, r1
     a5c:	09 f0       	breq	.+2      	; 0xa60 <check_condition+0x146>
     a5e:	7a c6       	rjmp	.+3316   	; 0x1754 <check_condition+0xe3a>
     a60:	bc c6       	rjmp	.+3448   	; 0x17da <check_condition+0xec0>
     a62:	85 30       	cpi	r24, 0x05	; 5
     a64:	91 05       	cpc	r25, r1
     a66:	69 f5       	brne	.+90     	; 0xac2 <check_condition+0x1a8>
     a68:	64 30       	cpi	r22, 0x04	; 4
     a6a:	71 05       	cpc	r23, r1
     a6c:	31 f4       	brne	.+12     	; 0xa7a <check_condition+0x160>
     a6e:	43 30       	cpi	r20, 0x03	; 3
     a70:	51 05       	cpc	r21, r1
     a72:	11 f0       	breq	.+4      	; 0xa78 <check_condition+0x15e>
     a74:	0c 94 43 0e 	jmp	0x1c86	; 0x1c86 <check_condition+0x136c>
     a78:	b3 c6       	rjmp	.+3430   	; 0x17e0 <check_condition+0xec6>
     a7a:	68 30       	cpi	r22, 0x08	; 8
     a7c:	71 05       	cpc	r23, r1
     a7e:	b9 f4       	brne	.+46     	; 0xaae <check_condition+0x194>
     a80:	49 30       	cpi	r20, 0x09	; 9
     a82:	51 05       	cpc	r21, r1
     a84:	79 f4       	brne	.+30     	; 0xaa4 <check_condition+0x18a>
     a86:	8f ef       	ldi	r24, 0xFF	; 255
     a88:	80 93 28 01 	sts	0x0128, r24	; 0x800128 <__TEXT_REGION_LENGTH__+0x700128>
     a8c:	80 93 2a 01 	sts	0x012A, r24	; 0x80012a <__TEXT_REGION_LENGTH__+0x70012a>
     a90:	1a dd       	rcall	.-1484   	; 0x4c6 <forward>
     a92:	64 e6       	ldi	r22, 0x64	; 100
     a94:	70 e0       	ldi	r23, 0x00	; 0
     a96:	80 e0       	ldi	r24, 0x00	; 0
     a98:	90 e0       	ldi	r25, 0x00	; 0
     a9a:	58 db       	rcall	.-2384   	; 0x14c <delay>
     a9c:	22 e0       	ldi	r18, 0x02	; 2
     a9e:	30 e0       	ldi	r19, 0x00	; 0
     aa0:	0c 94 2c 0e 	jmp	0x1c58	; 0x1c58 <check_condition+0x133e>
     aa4:	47 30       	cpi	r20, 0x07	; 7
     aa6:	51 05       	cpc	r21, r1
     aa8:	09 f0       	breq	.+2      	; 0xaac <check_condition+0x192>
     aaa:	54 c6       	rjmp	.+3240   	; 0x1754 <check_condition+0xe3a>
     aac:	9c c6       	rjmp	.+3384   	; 0x17e6 <check_condition+0xecc>
     aae:	66 30       	cpi	r22, 0x06	; 6
     ab0:	71 05       	cpc	r23, r1
     ab2:	09 f0       	breq	.+2      	; 0xab6 <check_condition+0x19c>
     ab4:	8a c4       	rjmp	.+2324   	; 0x13ca <check_condition+0xab0>
     ab6:	47 30       	cpi	r20, 0x07	; 7
     ab8:	51 05       	cpc	r21, r1
     aba:	11 f0       	breq	.+4      	; 0xac0 <check_condition+0x1a6>
     abc:	0c 94 47 0e 	jmp	0x1c8e	; 0x1c8e <check_condition+0x1374>
     ac0:	95 c6       	rjmp	.+3370   	; 0x17ec <check_condition+0xed2>
     ac2:	86 30       	cpi	r24, 0x06	; 6
     ac4:	91 05       	cpc	r25, r1
     ac6:	e9 f4       	brne	.+58     	; 0xb02 <check_condition+0x1e8>
     ac8:	67 30       	cpi	r22, 0x07	; 7
     aca:	71 05       	cpc	r23, r1
     acc:	49 f4       	brne	.+18     	; 0xae0 <check_condition+0x1c6>
     ace:	48 30       	cpi	r20, 0x08	; 8
     ad0:	51 05       	cpc	r21, r1
     ad2:	09 f4       	brne	.+2      	; 0xad6 <check_condition+0x1bc>
     ad4:	8e c6       	rjmp	.+3356   	; 0x17f2 <check_condition+0xed8>
     ad6:	44 31       	cpi	r20, 0x14	; 20
     ad8:	51 05       	cpc	r21, r1
     ada:	09 f0       	breq	.+2      	; 0xade <check_condition+0x1c4>
     adc:	3b c6       	rjmp	.+3190   	; 0x1754 <check_condition+0xe3a>
     ade:	8c c6       	rjmp	.+3352   	; 0x17f8 <check_condition+0xede>
     ae0:	65 30       	cpi	r22, 0x05	; 5
     ae2:	71 05       	cpc	r23, r1
     ae4:	09 f0       	breq	.+2      	; 0xae8 <check_condition+0x1ce>
     ae6:	83 c4       	rjmp	.+2310   	; 0x13ee <check_condition+0xad4>
     ae8:	48 30       	cpi	r20, 0x08	; 8
     aea:	51 05       	cpc	r21, r1
     aec:	09 f4       	brne	.+2      	; 0xaf0 <check_condition+0x1d6>
     aee:	87 c6       	rjmp	.+3342   	; 0x17fe <check_condition+0xee4>
     af0:	44 30       	cpi	r20, 0x04	; 4
     af2:	51 05       	cpc	r21, r1
     af4:	09 f4       	brne	.+2      	; 0xaf8 <check_condition+0x1de>
     af6:	86 c6       	rjmp	.+3340   	; 0x1804 <check_condition+0xeea>
     af8:	40 32       	cpi	r20, 0x20	; 32
     afa:	51 05       	cpc	r21, r1
     afc:	09 f0       	breq	.+2      	; 0xb00 <check_condition+0x1e6>
     afe:	2a c6       	rjmp	.+3156   	; 0x1754 <check_condition+0xe3a>
     b00:	84 c6       	rjmp	.+3336   	; 0x180a <check_condition+0xef0>
     b02:	87 30       	cpi	r24, 0x07	; 7
     b04:	91 05       	cpc	r25, r1
     b06:	11 f5       	brne	.+68     	; 0xb4c <check_condition+0x232>
     b08:	66 30       	cpi	r22, 0x06	; 6
     b0a:	71 05       	cpc	r23, r1
     b0c:	31 f4       	brne	.+12     	; 0xb1a <check_condition+0x200>
     b0e:	45 30       	cpi	r20, 0x05	; 5
     b10:	51 05       	cpc	r21, r1
     b12:	11 f0       	breq	.+4      	; 0xb18 <check_condition+0x1fe>
     b14:	0c 94 4b 0e 	jmp	0x1c96	; 0x1c96 <check_condition+0x137c>
     b18:	7b c6       	rjmp	.+3318   	; 0x1810 <check_condition+0xef6>
     b1a:	68 30       	cpi	r22, 0x08	; 8
     b1c:	71 05       	cpc	r23, r1
     b1e:	49 f4       	brne	.+18     	; 0xb32 <check_condition+0x218>
     b20:	45 30       	cpi	r20, 0x05	; 5
     b22:	51 05       	cpc	r21, r1
     b24:	09 f4       	brne	.+2      	; 0xb28 <check_condition+0x20e>
     b26:	77 c6       	rjmp	.+3310   	; 0x1816 <check_condition+0xefc>
     b28:	49 30       	cpi	r20, 0x09	; 9
     b2a:	51 05       	cpc	r21, r1
     b2c:	09 f0       	breq	.+2      	; 0xb30 <check_condition+0x216>
     b2e:	12 c6       	rjmp	.+3108   	; 0x1754 <check_condition+0xe3a>
     b30:	75 c6       	rjmp	.+3306   	; 0x181c <check_condition+0xf02>
     b32:	64 31       	cpi	r22, 0x14	; 20
     b34:	71 05       	cpc	r23, r1
     b36:	09 f0       	breq	.+2      	; 0xb3a <check_condition+0x220>
     b38:	68 c4       	rjmp	.+2256   	; 0x140a <check_condition+0xaf0>
     b3a:	4b 30       	cpi	r20, 0x0B	; 11
     b3c:	51 05       	cpc	r21, r1
     b3e:	09 f4       	brne	.+2      	; 0xb42 <check_condition+0x228>
     b40:	70 c6       	rjmp	.+3296   	; 0x1822 <check_condition+0xf08>
     b42:	45 31       	cpi	r20, 0x15	; 21
     b44:	51 05       	cpc	r21, r1
     b46:	09 f0       	breq	.+2      	; 0xb4a <check_condition+0x230>
     b48:	05 c6       	rjmp	.+3082   	; 0x1754 <check_condition+0xe3a>
     b4a:	6e c6       	rjmp	.+3292   	; 0x1828 <check_condition+0xf0e>
     b4c:	88 30       	cpi	r24, 0x08	; 8
     b4e:	91 05       	cpc	r25, r1
     b50:	49 f5       	brne	.+82     	; 0xba4 <check_condition+0x28a>
     b52:	69 30       	cpi	r22, 0x09	; 9
     b54:	71 05       	cpc	r23, r1
     b56:	49 f4       	brne	.+18     	; 0xb6a <check_condition+0x250>
     b58:	4a 30       	cpi	r20, 0x0A	; 10
     b5a:	51 05       	cpc	r21, r1
     b5c:	09 f4       	brne	.+2      	; 0xb60 <check_condition+0x246>
     b5e:	67 c6       	rjmp	.+3278   	; 0x182e <check_condition+0xf14>
     b60:	42 31       	cpi	r20, 0x12	; 18
     b62:	51 05       	cpc	r21, r1
     b64:	09 f0       	breq	.+2      	; 0xb68 <check_condition+0x24e>
     b66:	f6 c5       	rjmp	.+3052   	; 0x1754 <check_condition+0xe3a>
     b68:	65 c6       	rjmp	.+3274   	; 0x1834 <check_condition+0xf1a>
     b6a:	67 30       	cpi	r22, 0x07	; 7
     b6c:	71 05       	cpc	r23, r1
     b6e:	49 f4       	brne	.+18     	; 0xb82 <check_condition+0x268>
     b70:	44 31       	cpi	r20, 0x14	; 20
     b72:	51 05       	cpc	r21, r1
     b74:	09 f4       	brne	.+2      	; 0xb78 <check_condition+0x25e>
     b76:	61 c6       	rjmp	.+3266   	; 0x183a <check_condition+0xf20>
     b78:	46 30       	cpi	r20, 0x06	; 6
     b7a:	51 05       	cpc	r21, r1
     b7c:	09 f0       	breq	.+2      	; 0xb80 <check_condition+0x266>
     b7e:	ea c5       	rjmp	.+3028   	; 0x1754 <check_condition+0xe3a>
     b80:	5f c6       	rjmp	.+3262   	; 0x1840 <check_condition+0xf26>
     b82:	65 30       	cpi	r22, 0x05	; 5
     b84:	71 05       	cpc	r23, r1
     b86:	09 f0       	breq	.+2      	; 0xb8a <check_condition+0x270>
     b88:	51 c4       	rjmp	.+2210   	; 0x142c <check_condition+0xb12>
     b8a:	44 30       	cpi	r20, 0x04	; 4
     b8c:	51 05       	cpc	r21, r1
     b8e:	09 f4       	brne	.+2      	; 0xb92 <check_condition+0x278>
     b90:	5a c6       	rjmp	.+3252   	; 0x1846 <check_condition+0xf2c>
     b92:	46 30       	cpi	r20, 0x06	; 6
     b94:	51 05       	cpc	r21, r1
     b96:	09 f4       	brne	.+2      	; 0xb9a <check_condition+0x280>
     b98:	59 c6       	rjmp	.+3250   	; 0x184c <check_condition+0xf32>
     b9a:	40 32       	cpi	r20, 0x20	; 32
     b9c:	51 05       	cpc	r21, r1
     b9e:	09 f0       	breq	.+2      	; 0xba2 <check_condition+0x288>
     ba0:	d9 c5       	rjmp	.+2994   	; 0x1754 <check_condition+0xe3a>
     ba2:	57 c6       	rjmp	.+3246   	; 0x1852 <check_condition+0xf38>
     ba4:	89 30       	cpi	r24, 0x09	; 9
     ba6:	91 05       	cpc	r25, r1
     ba8:	09 f0       	breq	.+2      	; 0xbac <check_condition+0x292>
     baa:	5b c0       	rjmp	.+182    	; 0xc62 <check_condition+0x348>
     bac:	68 30       	cpi	r22, 0x08	; 8
     bae:	71 05       	cpc	r23, r1
     bb0:	b9 f4       	brne	.+46     	; 0xbe0 <check_condition+0x2c6>
     bb2:	45 30       	cpi	r20, 0x05	; 5
     bb4:	51 05       	cpc	r21, r1
     bb6:	79 f4       	brne	.+30     	; 0xbd6 <check_condition+0x2bc>
     bb8:	86 dc       	rcall	.-1780   	; 0x4c6 <forward>
     bba:	86 e9       	ldi	r24, 0x96	; 150
     bbc:	80 93 28 01 	sts	0x0128, r24	; 0x800128 <__TEXT_REGION_LENGTH__+0x700128>
     bc0:	80 93 2a 01 	sts	0x012A, r24	; 0x80012a <__TEXT_REGION_LENGTH__+0x70012a>
     bc4:	64 e6       	ldi	r22, 0x64	; 100
     bc6:	70 e0       	ldi	r23, 0x00	; 0
     bc8:	80 e0       	ldi	r24, 0x00	; 0
     bca:	90 e0       	ldi	r25, 0x00	; 0
     bcc:	bf da       	rcall	.-2690   	; 0x14c <delay>
     bce:	23 e0       	ldi	r18, 0x03	; 3
     bd0:	30 e0       	ldi	r19, 0x00	; 0
     bd2:	0c 94 2c 0e 	jmp	0x1c58	; 0x1c58 <check_condition+0x133e>
     bd6:	47 30       	cpi	r20, 0x07	; 7
     bd8:	51 05       	cpc	r21, r1
     bda:	09 f0       	breq	.+2      	; 0xbde <check_condition+0x2c4>
     bdc:	bb c5       	rjmp	.+2934   	; 0x1754 <check_condition+0xe3a>
     bde:	3c c6       	rjmp	.+3192   	; 0x1858 <check_condition+0xf3e>
     be0:	6a 30       	cpi	r22, 0x0A	; 10
     be2:	71 05       	cpc	r23, r1
     be4:	f9 f4       	brne	.+62     	; 0xc24 <check_condition+0x30a>
     be6:	4b 30       	cpi	r20, 0x0B	; 11
     be8:	51 05       	cpc	r21, r1
     bea:	99 f4       	brne	.+38     	; 0xc12 <check_condition+0x2f8>
     bec:	6c dc       	rcall	.-1832   	; 0x4c6 <forward>
     bee:	10 92 28 01 	sts	0x0128, r1	; 0x800128 <__TEXT_REGION_LENGTH__+0x700128>
     bf2:	86 e9       	ldi	r24, 0x96	; 150
     bf4:	80 93 2a 01 	sts	0x012A, r24	; 0x80012a <__TEXT_REGION_LENGTH__+0x70012a>
     bf8:	64 e6       	ldi	r22, 0x64	; 100
     bfa:	70 e0       	ldi	r23, 0x00	; 0
     bfc:	80 e0       	ldi	r24, 0x00	; 0
     bfe:	90 e0       	ldi	r25, 0x00	; 0
     c00:	a5 da       	rcall	.-2742   	; 0x14c <delay>
     c02:	82 e0       	ldi	r24, 0x02	; 2
     c04:	76 dc       	rcall	.-1812   	; 0x4f2 <ADC_Conversion>
     c06:	86 39       	cpi	r24, 0x96	; 150
     c08:	e0 f3       	brcs	.-8      	; 0xc02 <check_condition+0x2e8>
     c0a:	21 e0       	ldi	r18, 0x01	; 1
     c0c:	30 e0       	ldi	r19, 0x00	; 0
     c0e:	0c 94 2c 0e 	jmp	0x1c58	; 0x1c58 <check_condition+0x133e>
     c12:	4b 31       	cpi	r20, 0x1B	; 27
     c14:	51 05       	cpc	r21, r1
     c16:	09 f4       	brne	.+2      	; 0xc1a <check_condition+0x300>
     c18:	22 c6       	rjmp	.+3140   	; 0x185e <check_condition+0xf44>
     c1a:	43 30       	cpi	r20, 0x03	; 3
     c1c:	51 05       	cpc	r21, r1
     c1e:	09 f0       	breq	.+2      	; 0xc22 <check_condition+0x308>
     c20:	99 c5       	rjmp	.+2866   	; 0x1754 <check_condition+0xe3a>
     c22:	20 c6       	rjmp	.+3136   	; 0x1864 <check_condition+0xf4a>
     c24:	62 31       	cpi	r22, 0x12	; 18
     c26:	71 05       	cpc	r23, r1
     c28:	09 f0       	breq	.+2      	; 0xc2c <check_condition+0x312>
     c2a:	0e c4       	rjmp	.+2076   	; 0x1448 <check_condition+0xb2e>
     c2c:	41 31       	cpi	r20, 0x11	; 17
     c2e:	51 05       	cpc	r21, r1
     c30:	99 f4       	brne	.+38     	; 0xc58 <check_condition+0x33e>
     c32:	49 dc       	rcall	.-1902   	; 0x4c6 <forward>
     c34:	10 92 28 01 	sts	0x0128, r1	; 0x800128 <__TEXT_REGION_LENGTH__+0x700128>
     c38:	86 e9       	ldi	r24, 0x96	; 150
     c3a:	80 93 2a 01 	sts	0x012A, r24	; 0x80012a <__TEXT_REGION_LENGTH__+0x70012a>
     c3e:	64 e6       	ldi	r22, 0x64	; 100
     c40:	70 e0       	ldi	r23, 0x00	; 0
     c42:	80 e0       	ldi	r24, 0x00	; 0
     c44:	90 e0       	ldi	r25, 0x00	; 0
     c46:	82 da       	rcall	.-2812   	; 0x14c <delay>
     c48:	82 e0       	ldi	r24, 0x02	; 2
     c4a:	53 dc       	rcall	.-1882   	; 0x4f2 <ADC_Conversion>
     c4c:	86 39       	cpi	r24, 0x96	; 150
     c4e:	e0 f3       	brcs	.-8      	; 0xc48 <check_condition+0x32e>
     c50:	21 e0       	ldi	r18, 0x01	; 1
     c52:	30 e0       	ldi	r19, 0x00	; 0
     c54:	0c 94 2c 0e 	jmp	0x1c58	; 0x1c58 <check_condition+0x133e>
     c58:	43 31       	cpi	r20, 0x13	; 19
     c5a:	51 05       	cpc	r21, r1
     c5c:	09 f0       	breq	.+2      	; 0xc60 <check_condition+0x346>
     c5e:	7a c5       	rjmp	.+2804   	; 0x1754 <check_condition+0xe3a>
     c60:	04 c6       	rjmp	.+3080   	; 0x186a <check_condition+0xf50>
     c62:	8a 30       	cpi	r24, 0x0A	; 10
     c64:	91 05       	cpc	r25, r1
     c66:	09 f0       	breq	.+2      	; 0xc6a <check_condition+0x350>
     c68:	47 c0       	rjmp	.+142    	; 0xcf8 <check_condition+0x3de>
     c6a:	69 30       	cpi	r22, 0x09	; 9
     c6c:	71 05       	cpc	r23, r1
     c6e:	d1 f4       	brne	.+52     	; 0xca4 <check_condition+0x38a>
     c70:	48 30       	cpi	r20, 0x08	; 8
     c72:	51 05       	cpc	r21, r1
     c74:	09 f4       	brne	.+2      	; 0xc78 <check_condition+0x35e>
     c76:	fc c5       	rjmp	.+3064   	; 0x1870 <check_condition+0xf56>
     c78:	42 31       	cpi	r20, 0x12	; 18
     c7a:	51 05       	cpc	r21, r1
     c7c:	09 f0       	breq	.+2      	; 0xc80 <check_condition+0x366>
     c7e:	6a c5       	rjmp	.+2772   	; 0x1754 <check_condition+0xe3a>
     c80:	22 dc       	rcall	.-1980   	; 0x4c6 <forward>
     c82:	10 92 28 01 	sts	0x0128, r1	; 0x800128 <__TEXT_REGION_LENGTH__+0x700128>
     c86:	86 e9       	ldi	r24, 0x96	; 150
     c88:	80 93 2a 01 	sts	0x012A, r24	; 0x80012a <__TEXT_REGION_LENGTH__+0x70012a>
     c8c:	64 e6       	ldi	r22, 0x64	; 100
     c8e:	70 e0       	ldi	r23, 0x00	; 0
     c90:	80 e0       	ldi	r24, 0x00	; 0
     c92:	90 e0       	ldi	r25, 0x00	; 0
     c94:	5b da       	rcall	.-2890   	; 0x14c <delay>
     c96:	82 e0       	ldi	r24, 0x02	; 2
     c98:	2c dc       	rcall	.-1960   	; 0x4f2 <ADC_Conversion>
     c9a:	86 39       	cpi	r24, 0x96	; 150
     c9c:	e0 f3       	brcs	.-8      	; 0xc96 <check_condition+0x37c>
     c9e:	21 e0       	ldi	r18, 0x01	; 1
     ca0:	30 e0       	ldi	r19, 0x00	; 0
     ca2:	da c7       	rjmp	.+4020   	; 0x1c58 <check_condition+0x133e>
     ca4:	63 30       	cpi	r22, 0x03	; 3
     ca6:	71 05       	cpc	r23, r1
     ca8:	49 f4       	brne	.+18     	; 0xcbc <check_condition+0x3a2>
     caa:	42 30       	cpi	r20, 0x02	; 2
     cac:	51 05       	cpc	r21, r1
     cae:	09 f4       	brne	.+2      	; 0xcb2 <check_condition+0x398>
     cb0:	e2 c5       	rjmp	.+3012   	; 0x1876 <check_condition+0xf5c>
     cb2:	44 30       	cpi	r20, 0x04	; 4
     cb4:	51 05       	cpc	r21, r1
     cb6:	09 f0       	breq	.+2      	; 0xcba <check_condition+0x3a0>
     cb8:	4d c5       	rjmp	.+2714   	; 0x1754 <check_condition+0xe3a>
     cba:	e0 c5       	rjmp	.+3008   	; 0x187c <check_condition+0xf62>
     cbc:	6b 30       	cpi	r22, 0x0B	; 11
     cbe:	71 05       	cpc	r23, r1
     cc0:	09 f0       	breq	.+2      	; 0xcc4 <check_condition+0x3aa>
     cc2:	d0 c3       	rjmp	.+1952   	; 0x1464 <check_condition+0xb4a>
     cc4:	4c 30       	cpi	r20, 0x0C	; 12
     cc6:	51 05       	cpc	r21, r1
     cc8:	09 f4       	brne	.+2      	; 0xccc <check_condition+0x3b2>
     cca:	db c5       	rjmp	.+2998   	; 0x1882 <check_condition+0xf68>
     ccc:	40 31       	cpi	r20, 0x10	; 16
     cce:	51 05       	cpc	r21, r1
     cd0:	09 f0       	breq	.+2      	; 0xcd4 <check_condition+0x3ba>
     cd2:	40 c5       	rjmp	.+2688   	; 0x1754 <check_condition+0xe3a>
     cd4:	f8 db       	rcall	.-2064   	; 0x4c6 <forward>
     cd6:	10 92 28 01 	sts	0x0128, r1	; 0x800128 <__TEXT_REGION_LENGTH__+0x700128>
     cda:	86 e9       	ldi	r24, 0x96	; 150
     cdc:	80 93 2a 01 	sts	0x012A, r24	; 0x80012a <__TEXT_REGION_LENGTH__+0x70012a>
     ce0:	64 e6       	ldi	r22, 0x64	; 100
     ce2:	70 e0       	ldi	r23, 0x00	; 0
     ce4:	80 e0       	ldi	r24, 0x00	; 0
     ce6:	90 e0       	ldi	r25, 0x00	; 0
     ce8:	31 da       	rcall	.-2974   	; 0x14c <delay>
     cea:	82 e0       	ldi	r24, 0x02	; 2
     cec:	02 dc       	rcall	.-2044   	; 0x4f2 <ADC_Conversion>
     cee:	86 39       	cpi	r24, 0x96	; 150
     cf0:	e0 f3       	brcs	.-8      	; 0xcea <check_condition+0x3d0>
     cf2:	21 e0       	ldi	r18, 0x01	; 1
     cf4:	30 e0       	ldi	r19, 0x00	; 0
     cf6:	b0 c7       	rjmp	.+3936   	; 0x1c58 <check_condition+0x133e>
     cf8:	8b 30       	cpi	r24, 0x0B	; 11
     cfa:	91 05       	cpc	r25, r1
     cfc:	d1 f5       	brne	.+116    	; 0xd72 <check_condition+0x458>
     cfe:	6a 30       	cpi	r22, 0x0A	; 10
     d00:	71 05       	cpc	r23, r1
     d02:	69 f4       	brne	.+26     	; 0xd1e <check_condition+0x404>
     d04:	4b 31       	cpi	r20, 0x1B	; 27
     d06:	51 05       	cpc	r21, r1
     d08:	09 f4       	brne	.+2      	; 0xd0c <check_condition+0x3f2>
     d0a:	be c5       	rjmp	.+2940   	; 0x1888 <check_condition+0xf6e>
     d0c:	43 30       	cpi	r20, 0x03	; 3
     d0e:	51 05       	cpc	r21, r1
     d10:	09 f4       	brne	.+2      	; 0xd14 <check_condition+0x3fa>
     d12:	bd c5       	rjmp	.+2938   	; 0x188e <check_condition+0xf74>
     d14:	49 30       	cpi	r20, 0x09	; 9
     d16:	51 05       	cpc	r21, r1
     d18:	09 f0       	breq	.+2      	; 0xd1c <check_condition+0x402>
     d1a:	1c c5       	rjmp	.+2616   	; 0x1754 <check_condition+0xe3a>
     d1c:	bb c5       	rjmp	.+2934   	; 0x1894 <check_condition+0xf7a>
     d1e:	6c 30       	cpi	r22, 0x0C	; 12
     d20:	71 05       	cpc	r23, r1
     d22:	49 f4       	brne	.+18     	; 0xd36 <check_condition+0x41c>
     d24:	41 30       	cpi	r20, 0x01	; 1
     d26:	51 05       	cpc	r21, r1
     d28:	09 f4       	brne	.+2      	; 0xd2c <check_condition+0x412>
     d2a:	b7 c5       	rjmp	.+2926   	; 0x189a <check_condition+0xf80>
     d2c:	4d 30       	cpi	r20, 0x0D	; 13
     d2e:	51 05       	cpc	r21, r1
     d30:	09 f0       	breq	.+2      	; 0xd34 <check_condition+0x41a>
     d32:	10 c5       	rjmp	.+2592   	; 0x1754 <check_condition+0xe3a>
     d34:	b5 c5       	rjmp	.+2922   	; 0x18a0 <check_condition+0xf86>
     d36:	60 31       	cpi	r22, 0x10	; 16
     d38:	71 05       	cpc	r23, r1
     d3a:	09 f0       	breq	.+2      	; 0xd3e <check_condition+0x424>
     d3c:	9d c3       	rjmp	.+1850   	; 0x1478 <check_condition+0xb5e>
     d3e:	4f 30       	cpi	r20, 0x0F	; 15
     d40:	51 05       	cpc	r21, r1
     d42:	09 f4       	brne	.+2      	; 0xd46 <check_condition+0x42c>
     d44:	b0 c5       	rjmp	.+2912   	; 0x18a6 <check_condition+0xf8c>
     d46:	41 31       	cpi	r20, 0x11	; 17
     d48:	51 05       	cpc	r21, r1
     d4a:	09 f0       	breq	.+2      	; 0xd4e <check_condition+0x434>
     d4c:	03 c5       	rjmp	.+2566   	; 0x1754 <check_condition+0xe3a>
     d4e:	bb db       	rcall	.-2186   	; 0x4c6 <forward>
     d50:	10 92 28 01 	sts	0x0128, r1	; 0x800128 <__TEXT_REGION_LENGTH__+0x700128>
     d54:	86 e9       	ldi	r24, 0x96	; 150
     d56:	80 93 2a 01 	sts	0x012A, r24	; 0x80012a <__TEXT_REGION_LENGTH__+0x70012a>
     d5a:	64 e6       	ldi	r22, 0x64	; 100
     d5c:	70 e0       	ldi	r23, 0x00	; 0
     d5e:	80 e0       	ldi	r24, 0x00	; 0
     d60:	90 e0       	ldi	r25, 0x00	; 0
     d62:	f4 d9       	rcall	.-3096   	; 0x14c <delay>
     d64:	82 e0       	ldi	r24, 0x02	; 2
     d66:	c5 db       	rcall	.-2166   	; 0x4f2 <ADC_Conversion>
     d68:	86 39       	cpi	r24, 0x96	; 150
     d6a:	e0 f3       	brcs	.-8      	; 0xd64 <check_condition+0x44a>
     d6c:	21 e0       	ldi	r18, 0x01	; 1
     d6e:	30 e0       	ldi	r19, 0x00	; 0
     d70:	73 c7       	rjmp	.+3814   	; 0x1c58 <check_condition+0x133e>
     d72:	8c 30       	cpi	r24, 0x0C	; 12
     d74:	91 05       	cpc	r25, r1
     d76:	21 f5       	brne	.+72     	; 0xdc0 <check_condition+0x4a6>
     d78:	6b 30       	cpi	r22, 0x0B	; 11
     d7a:	71 05       	cpc	r23, r1
     d7c:	49 f4       	brne	.+18     	; 0xd90 <check_condition+0x476>
     d7e:	4a 30       	cpi	r20, 0x0A	; 10
     d80:	51 05       	cpc	r21, r1
     d82:	09 f4       	brne	.+2      	; 0xd86 <check_condition+0x46c>
     d84:	93 c5       	rjmp	.+2854   	; 0x18ac <check_condition+0xf92>
     d86:	40 31       	cpi	r20, 0x10	; 16
     d88:	51 05       	cpc	r21, r1
     d8a:	09 f0       	breq	.+2      	; 0xd8e <check_condition+0x474>
     d8c:	e3 c4       	rjmp	.+2502   	; 0x1754 <check_condition+0xe3a>
     d8e:	91 c5       	rjmp	.+2850   	; 0x18b2 <check_condition+0xf98>
     d90:	6d 30       	cpi	r22, 0x0D	; 13
     d92:	71 05       	cpc	r23, r1
     d94:	21 f4       	brne	.+8      	; 0xd9e <check_condition+0x484>
     d96:	45 2b       	or	r20, r21
     d98:	09 f0       	breq	.+2      	; 0xd9c <check_condition+0x482>
     d9a:	dc c4       	rjmp	.+2488   	; 0x1754 <check_condition+0xe3a>
     d9c:	8d c5       	rjmp	.+2842   	; 0x18b8 <check_condition+0xf9e>
     d9e:	61 30       	cpi	r22, 0x01	; 1
     da0:	71 05       	cpc	r23, r1
     da2:	09 f0       	breq	.+2      	; 0xda6 <check_condition+0x48c>
     da4:	7a c3       	rjmp	.+1780   	; 0x149a <check_condition+0xb80>
     da6:	41 15       	cp	r20, r1
     da8:	51 05       	cpc	r21, r1
     daa:	09 f4       	brne	.+2      	; 0xdae <check_condition+0x494>
     dac:	88 c5       	rjmp	.+2832   	; 0x18be <check_condition+0xfa4>
     dae:	42 30       	cpi	r20, 0x02	; 2
     db0:	51 05       	cpc	r21, r1
     db2:	09 f4       	brne	.+2      	; 0xdb6 <check_condition+0x49c>
     db4:	87 c5       	rjmp	.+2830   	; 0x18c4 <check_condition+0xfaa>
     db6:	4d 31       	cpi	r20, 0x1D	; 29
     db8:	51 05       	cpc	r21, r1
     dba:	09 f0       	breq	.+2      	; 0xdbe <check_condition+0x4a4>
     dbc:	cb c4       	rjmp	.+2454   	; 0x1754 <check_condition+0xe3a>
     dbe:	85 c5       	rjmp	.+2826   	; 0x18ca <check_condition+0xfb0>
     dc0:	8d 30       	cpi	r24, 0x0D	; 13
     dc2:	91 05       	cpc	r25, r1
     dc4:	09 f5       	brne	.+66     	; 0xe08 <check_condition+0x4ee>
     dc6:	6c 30       	cpi	r22, 0x0C	; 12
     dc8:	71 05       	cpc	r23, r1
     dca:	49 f4       	brne	.+18     	; 0xdde <check_condition+0x4c4>
     dcc:	41 30       	cpi	r20, 0x01	; 1
     dce:	51 05       	cpc	r21, r1
     dd0:	09 f4       	brne	.+2      	; 0xdd4 <check_condition+0x4ba>
     dd2:	7e c5       	rjmp	.+2812   	; 0x18d0 <check_condition+0xfb6>
     dd4:	4b 30       	cpi	r20, 0x0B	; 11
     dd6:	51 05       	cpc	r21, r1
     dd8:	09 f0       	breq	.+2      	; 0xddc <check_condition+0x4c2>
     dda:	bc c4       	rjmp	.+2424   	; 0x1754 <check_condition+0xe3a>
     ddc:	7c c5       	rjmp	.+2808   	; 0x18d6 <check_condition+0xfbc>
     dde:	61 15       	cp	r22, r1
     de0:	71 05       	cpc	r23, r1
     de2:	29 f4       	brne	.+10     	; 0xdee <check_condition+0x4d4>
     de4:	41 30       	cpi	r20, 0x01	; 1
     de6:	51 05       	cpc	r21, r1
     de8:	09 f0       	breq	.+2      	; 0xdec <check_condition+0x4d2>
     dea:	59 c7       	rjmp	.+3762   	; 0x1c9e <check_condition+0x1384>
     dec:	77 c5       	rjmp	.+2798   	; 0x18dc <check_condition+0xfc2>
     dee:	6e 30       	cpi	r22, 0x0E	; 14
     df0:	71 05       	cpc	r23, r1
     df2:	09 f0       	breq	.+2      	; 0xdf6 <check_condition+0x4dc>
     df4:	63 c3       	rjmp	.+1734   	; 0x14bc <check_condition+0xba2>
     df6:	46 31       	cpi	r20, 0x16	; 22
     df8:	51 05       	cpc	r21, r1
     dfa:	09 f4       	brne	.+2      	; 0xdfe <check_condition+0x4e4>
     dfc:	72 c5       	rjmp	.+2788   	; 0x18e2 <check_condition+0xfc8>
     dfe:	4f 30       	cpi	r20, 0x0F	; 15
     e00:	51 05       	cpc	r21, r1
     e02:	09 f0       	breq	.+2      	; 0xe06 <check_condition+0x4ec>
     e04:	a7 c4       	rjmp	.+2382   	; 0x1754 <check_condition+0xe3a>
     e06:	70 c5       	rjmp	.+2784   	; 0x18e8 <check_condition+0xfce>
     e08:	8e 30       	cpi	r24, 0x0E	; 14
     e0a:	91 05       	cpc	r25, r1
     e0c:	e1 f4       	brne	.+56     	; 0xe46 <check_condition+0x52c>
     e0e:	6f 30       	cpi	r22, 0x0F	; 15
     e10:	71 05       	cpc	r23, r1
     e12:	29 f4       	brne	.+10     	; 0xe1e <check_condition+0x504>
     e14:	40 31       	cpi	r20, 0x10	; 16
     e16:	51 05       	cpc	r21, r1
     e18:	09 f0       	breq	.+2      	; 0xe1c <check_condition+0x502>
     e1a:	45 c7       	rjmp	.+3722   	; 0x1ca6 <check_condition+0x138c>
     e1c:	68 c5       	rjmp	.+2768   	; 0x18ee <check_condition+0xfd4>
     e1e:	6d 30       	cpi	r22, 0x0D	; 13
     e20:	71 05       	cpc	r23, r1
     e22:	41 f4       	brne	.+16     	; 0xe34 <check_condition+0x51a>
     e24:	4c 30       	cpi	r20, 0x0C	; 12
     e26:	51 05       	cpc	r21, r1
     e28:	09 f4       	brne	.+2      	; 0xe2c <check_condition+0x512>
     e2a:	64 c5       	rjmp	.+2760   	; 0x18f4 <check_condition+0xfda>
     e2c:	45 2b       	or	r20, r21
     e2e:	09 f0       	breq	.+2      	; 0xe32 <check_condition+0x518>
     e30:	91 c4       	rjmp	.+2338   	; 0x1754 <check_condition+0xe3a>
     e32:	63 c5       	rjmp	.+2758   	; 0x18fa <check_condition+0xfe0>
     e34:	66 31       	cpi	r22, 0x16	; 22
     e36:	71 05       	cpc	r23, r1
     e38:	09 f0       	breq	.+2      	; 0xe3c <check_condition+0x522>
     e3a:	4d c3       	rjmp	.+1690   	; 0x14d6 <check_condition+0xbbc>
     e3c:	42 32       	cpi	r20, 0x22	; 34
     e3e:	51 05       	cpc	r21, r1
     e40:	09 f0       	breq	.+2      	; 0xe44 <check_condition+0x52a>
     e42:	88 c4       	rjmp	.+2320   	; 0x1754 <check_condition+0xe3a>
     e44:	5d c5       	rjmp	.+2746   	; 0x1900 <check_condition+0xfe6>
     e46:	8f 30       	cpi	r24, 0x0F	; 15
     e48:	91 05       	cpc	r25, r1
     e4a:	e9 f4       	brne	.+58     	; 0xe86 <check_condition+0x56c>
     e4c:	6e 30       	cpi	r22, 0x0E	; 14
     e4e:	71 05       	cpc	r23, r1
     e50:	49 f4       	brne	.+18     	; 0xe64 <check_condition+0x54a>
     e52:	4d 30       	cpi	r20, 0x0D	; 13
     e54:	51 05       	cpc	r21, r1
     e56:	09 f4       	brne	.+2      	; 0xe5a <check_condition+0x540>
     e58:	56 c5       	rjmp	.+2732   	; 0x1906 <check_condition+0xfec>
     e5a:	46 31       	cpi	r20, 0x16	; 22
     e5c:	51 05       	cpc	r21, r1
     e5e:	09 f0       	breq	.+2      	; 0xe62 <check_condition+0x548>
     e60:	79 c4       	rjmp	.+2290   	; 0x1754 <check_condition+0xe3a>
     e62:	54 c5       	rjmp	.+2728   	; 0x190c <check_condition+0xff2>
     e64:	60 31       	cpi	r22, 0x10	; 16
     e66:	71 05       	cpc	r23, r1
     e68:	09 f0       	breq	.+2      	; 0xe6c <check_condition+0x552>
     e6a:	43 c3       	rjmp	.+1670   	; 0x14f2 <check_condition+0xbd8>
     e6c:	4b 30       	cpi	r20, 0x0B	; 11
     e6e:	51 05       	cpc	r21, r1
     e70:	09 f4       	brne	.+2      	; 0xe74 <check_condition+0x55a>
     e72:	4f c5       	rjmp	.+2718   	; 0x1912 <check_condition+0xff8>
     e74:	41 31       	cpi	r20, 0x11	; 17
     e76:	51 05       	cpc	r21, r1
     e78:	09 f4       	brne	.+2      	; 0xe7c <check_condition+0x562>
     e7a:	4e c5       	rjmp	.+2716   	; 0x1918 <check_condition+0xffe>
     e7c:	46 31       	cpi	r20, 0x16	; 22
     e7e:	51 05       	cpc	r21, r1
     e80:	09 f0       	breq	.+2      	; 0xe84 <check_condition+0x56a>
     e82:	68 c4       	rjmp	.+2256   	; 0x1754 <check_condition+0xe3a>
     e84:	4c c5       	rjmp	.+2712   	; 0x191e <check_condition+0x1004>
     e86:	80 31       	cpi	r24, 0x10	; 16
     e88:	91 05       	cpc	r25, r1
     e8a:	09 f0       	breq	.+2      	; 0xe8e <check_condition+0x574>
     e8c:	43 c0       	rjmp	.+134    	; 0xf14 <check_condition+0x5fa>
     e8e:	6f 30       	cpi	r22, 0x0F	; 15
     e90:	71 05       	cpc	r23, r1
     e92:	29 f4       	brne	.+10     	; 0xe9e <check_condition+0x584>
     e94:	4e 30       	cpi	r20, 0x0E	; 14
     e96:	51 05       	cpc	r21, r1
     e98:	09 f0       	breq	.+2      	; 0xe9c <check_condition+0x582>
     e9a:	09 c7       	rjmp	.+3602   	; 0x1cae <check_condition+0x1394>
     e9c:	43 c5       	rjmp	.+2694   	; 0x1924 <check_condition+0x100a>
     e9e:	6b 30       	cpi	r22, 0x0B	; 11
     ea0:	71 05       	cpc	r23, r1
     ea2:	d1 f4       	brne	.+52     	; 0xed8 <check_condition+0x5be>
     ea4:	4c 30       	cpi	r20, 0x0C	; 12
     ea6:	51 05       	cpc	r21, r1
     ea8:	09 f4       	brne	.+2      	; 0xeac <check_condition+0x592>
     eaa:	3f c5       	rjmp	.+2686   	; 0x192a <check_condition+0x1010>
     eac:	4a 30       	cpi	r20, 0x0A	; 10
     eae:	51 05       	cpc	r21, r1
     eb0:	09 f0       	breq	.+2      	; 0xeb4 <check_condition+0x59a>
     eb2:	50 c4       	rjmp	.+2208   	; 0x1754 <check_condition+0xe3a>
     eb4:	08 db       	rcall	.-2544   	; 0x4c6 <forward>
     eb6:	10 92 28 01 	sts	0x0128, r1	; 0x800128 <__TEXT_REGION_LENGTH__+0x700128>
     eba:	86 e9       	ldi	r24, 0x96	; 150
     ebc:	80 93 2a 01 	sts	0x012A, r24	; 0x80012a <__TEXT_REGION_LENGTH__+0x70012a>
     ec0:	64 e6       	ldi	r22, 0x64	; 100
     ec2:	70 e0       	ldi	r23, 0x00	; 0
     ec4:	80 e0       	ldi	r24, 0x00	; 0
     ec6:	90 e0       	ldi	r25, 0x00	; 0
     ec8:	41 d9       	rcall	.-3454   	; 0x14c <delay>
     eca:	82 e0       	ldi	r24, 0x02	; 2
     ecc:	12 db       	rcall	.-2524   	; 0x4f2 <ADC_Conversion>
     ece:	86 39       	cpi	r24, 0x96	; 150
     ed0:	e0 f3       	brcs	.-8      	; 0xeca <check_condition+0x5b0>
     ed2:	21 e0       	ldi	r18, 0x01	; 1
     ed4:	30 e0       	ldi	r19, 0x00	; 0
     ed6:	c0 c6       	rjmp	.+3456   	; 0x1c58 <check_condition+0x133e>
     ed8:	61 31       	cpi	r22, 0x11	; 17
     eda:	71 05       	cpc	r23, r1
     edc:	09 f0       	breq	.+2      	; 0xee0 <check_condition+0x5c6>
     ede:	25 c3       	rjmp	.+1610   	; 0x152a <check_condition+0xc10>
     ee0:	47 31       	cpi	r20, 0x17	; 23
     ee2:	51 05       	cpc	r21, r1
     ee4:	09 f4       	brne	.+2      	; 0xee8 <check_condition+0x5ce>
     ee6:	24 c5       	rjmp	.+2632   	; 0x1930 <check_condition+0x1016>
     ee8:	42 31       	cpi	r20, 0x12	; 18
     eea:	51 05       	cpc	r21, r1
     eec:	09 f0       	breq	.+2      	; 0xef0 <check_condition+0x5d6>
     eee:	32 c4       	rjmp	.+2148   	; 0x1754 <check_condition+0xe3a>
     ef0:	ea da       	rcall	.-2604   	; 0x4c6 <forward>
     ef2:	10 92 28 01 	sts	0x0128, r1	; 0x800128 <__TEXT_REGION_LENGTH__+0x700128>
     ef6:	86 e9       	ldi	r24, 0x96	; 150
     ef8:	80 93 2a 01 	sts	0x012A, r24	; 0x80012a <__TEXT_REGION_LENGTH__+0x70012a>
     efc:	64 e6       	ldi	r22, 0x64	; 100
     efe:	70 e0       	ldi	r23, 0x00	; 0
     f00:	80 e0       	ldi	r24, 0x00	; 0
     f02:	90 e0       	ldi	r25, 0x00	; 0
     f04:	23 d9       	rcall	.-3514   	; 0x14c <delay>
     f06:	82 e0       	ldi	r24, 0x02	; 2
     f08:	f4 da       	rcall	.-2584   	; 0x4f2 <ADC_Conversion>
     f0a:	86 39       	cpi	r24, 0x96	; 150
     f0c:	e0 f3       	brcs	.-8      	; 0xf06 <check_condition+0x5ec>
     f0e:	21 e0       	ldi	r18, 0x01	; 1
     f10:	30 e0       	ldi	r19, 0x00	; 0
     f12:	a2 c6       	rjmp	.+3396   	; 0x1c58 <check_condition+0x133e>
     f14:	81 31       	cpi	r24, 0x11	; 17
     f16:	91 05       	cpc	r25, r1
     f18:	09 f0       	breq	.+2      	; 0xf1c <check_condition+0x602>
     f1a:	43 c0       	rjmp	.+134    	; 0xfa2 <check_condition+0x688>
     f1c:	60 31       	cpi	r22, 0x10	; 16
     f1e:	71 05       	cpc	r23, r1
     f20:	d1 f4       	brne	.+52     	; 0xf56 <check_condition+0x63c>
     f22:	4f 30       	cpi	r20, 0x0F	; 15
     f24:	51 05       	cpc	r21, r1
     f26:	09 f4       	brne	.+2      	; 0xf2a <check_condition+0x610>
     f28:	06 c5       	rjmp	.+2572   	; 0x1936 <check_condition+0x101c>
     f2a:	4b 30       	cpi	r20, 0x0B	; 11
     f2c:	51 05       	cpc	r21, r1
     f2e:	09 f0       	breq	.+2      	; 0xf32 <check_condition+0x618>
     f30:	11 c4       	rjmp	.+2082   	; 0x1754 <check_condition+0xe3a>
     f32:	c9 da       	rcall	.-2670   	; 0x4c6 <forward>
     f34:	10 92 28 01 	sts	0x0128, r1	; 0x800128 <__TEXT_REGION_LENGTH__+0x700128>
     f38:	86 e9       	ldi	r24, 0x96	; 150
     f3a:	80 93 2a 01 	sts	0x012A, r24	; 0x80012a <__TEXT_REGION_LENGTH__+0x70012a>
     f3e:	64 e6       	ldi	r22, 0x64	; 100
     f40:	70 e0       	ldi	r23, 0x00	; 0
     f42:	80 e0       	ldi	r24, 0x00	; 0
     f44:	90 e0       	ldi	r25, 0x00	; 0
     f46:	02 d9       	rcall	.-3580   	; 0x14c <delay>
     f48:	82 e0       	ldi	r24, 0x02	; 2
     f4a:	d3 da       	rcall	.-2650   	; 0x4f2 <ADC_Conversion>
     f4c:	86 39       	cpi	r24, 0x96	; 150
     f4e:	e0 f3       	brcs	.-8      	; 0xf48 <check_condition+0x62e>
     f50:	21 e0       	ldi	r18, 0x01	; 1
     f52:	30 e0       	ldi	r19, 0x00	; 0
     f54:	81 c6       	rjmp	.+3330   	; 0x1c58 <check_condition+0x133e>
     f56:	62 31       	cpi	r22, 0x12	; 18
     f58:	71 05       	cpc	r23, r1
     f5a:	d1 f4       	brne	.+52     	; 0xf90 <check_condition+0x676>
     f5c:	43 31       	cpi	r20, 0x13	; 19
     f5e:	51 05       	cpc	r21, r1
     f60:	09 f4       	brne	.+2      	; 0xf64 <check_condition+0x64a>
     f62:	ec c4       	rjmp	.+2520   	; 0x193c <check_condition+0x1022>
     f64:	49 30       	cpi	r20, 0x09	; 9
     f66:	51 05       	cpc	r21, r1
     f68:	09 f0       	breq	.+2      	; 0xf6c <check_condition+0x652>
     f6a:	f4 c3       	rjmp	.+2024   	; 0x1754 <check_condition+0xe3a>
     f6c:	ac da       	rcall	.-2728   	; 0x4c6 <forward>
     f6e:	10 92 28 01 	sts	0x0128, r1	; 0x800128 <__TEXT_REGION_LENGTH__+0x700128>
     f72:	86 e9       	ldi	r24, 0x96	; 150
     f74:	80 93 2a 01 	sts	0x012A, r24	; 0x80012a <__TEXT_REGION_LENGTH__+0x70012a>
     f78:	64 e6       	ldi	r22, 0x64	; 100
     f7a:	70 e0       	ldi	r23, 0x00	; 0
     f7c:	80 e0       	ldi	r24, 0x00	; 0
     f7e:	90 e0       	ldi	r25, 0x00	; 0
     f80:	e5 d8       	rcall	.-3638   	; 0x14c <delay>
     f82:	82 e0       	ldi	r24, 0x02	; 2
     f84:	b6 da       	rcall	.-2708   	; 0x4f2 <ADC_Conversion>
     f86:	86 39       	cpi	r24, 0x96	; 150
     f88:	e0 f3       	brcs	.-8      	; 0xf82 <check_condition+0x668>
     f8a:	21 e0       	ldi	r18, 0x01	; 1
     f8c:	30 e0       	ldi	r19, 0x00	; 0
     f8e:	64 c6       	rjmp	.+3272   	; 0x1c58 <check_condition+0x133e>
     f90:	67 31       	cpi	r22, 0x17	; 23
     f92:	71 05       	cpc	r23, r1
     f94:	09 f0       	breq	.+2      	; 0xf98 <check_condition+0x67e>
     f96:	d7 c2       	rjmp	.+1454   	; 0x1546 <check_condition+0xc2c>
     f98:	48 31       	cpi	r20, 0x18	; 24
     f9a:	51 05       	cpc	r21, r1
     f9c:	09 f0       	breq	.+2      	; 0xfa0 <check_condition+0x686>
     f9e:	da c3       	rjmp	.+1972   	; 0x1754 <check_condition+0xe3a>
     fa0:	d0 c4       	rjmp	.+2464   	; 0x1942 <check_condition+0x1028>
     fa2:	82 31       	cpi	r24, 0x12	; 18
     fa4:	91 05       	cpc	r25, r1
     fa6:	91 f5       	brne	.+100    	; 0x100c <check_condition+0x6f2>
     fa8:	63 31       	cpi	r22, 0x13	; 19
     faa:	71 05       	cpc	r23, r1
     fac:	29 f4       	brne	.+10     	; 0xfb8 <check_condition+0x69e>
     fae:	44 31       	cpi	r20, 0x14	; 20
     fb0:	51 05       	cpc	r21, r1
     fb2:	09 f0       	breq	.+2      	; 0xfb6 <check_condition+0x69c>
     fb4:	80 c6       	rjmp	.+3328   	; 0x1cb6 <check_condition+0x139c>
     fb6:	c8 c4       	rjmp	.+2448   	; 0x1948 <check_condition+0x102e>
     fb8:	69 30       	cpi	r22, 0x09	; 9
     fba:	71 05       	cpc	r23, r1
     fbc:	49 f4       	brne	.+18     	; 0xfd0 <check_condition+0x6b6>
     fbe:	4a 30       	cpi	r20, 0x0A	; 10
     fc0:	51 05       	cpc	r21, r1
     fc2:	09 f4       	brne	.+2      	; 0xfc6 <check_condition+0x6ac>
     fc4:	c4 c4       	rjmp	.+2440   	; 0x194e <check_condition+0x1034>
     fc6:	48 30       	cpi	r20, 0x08	; 8
     fc8:	51 05       	cpc	r21, r1
     fca:	09 f0       	breq	.+2      	; 0xfce <check_condition+0x6b4>
     fcc:	c3 c3       	rjmp	.+1926   	; 0x1754 <check_condition+0xe3a>
     fce:	c2 c4       	rjmp	.+2436   	; 0x1954 <check_condition+0x103a>
     fd0:	61 31       	cpi	r22, 0x11	; 17
     fd2:	71 05       	cpc	r23, r1
     fd4:	09 f0       	breq	.+2      	; 0xfd8 <check_condition+0x6be>
     fd6:	c5 c2       	rjmp	.+1418   	; 0x1562 <check_condition+0xc48>
     fd8:	40 31       	cpi	r20, 0x10	; 16
     fda:	51 05       	cpc	r21, r1
     fdc:	91 f4       	brne	.+36     	; 0x1002 <check_condition+0x6e8>
     fde:	73 da       	rcall	.-2842   	; 0x4c6 <forward>
     fe0:	10 92 28 01 	sts	0x0128, r1	; 0x800128 <__TEXT_REGION_LENGTH__+0x700128>
     fe4:	86 e9       	ldi	r24, 0x96	; 150
     fe6:	80 93 2a 01 	sts	0x012A, r24	; 0x80012a <__TEXT_REGION_LENGTH__+0x70012a>
     fea:	64 e6       	ldi	r22, 0x64	; 100
     fec:	70 e0       	ldi	r23, 0x00	; 0
     fee:	80 e0       	ldi	r24, 0x00	; 0
     ff0:	90 e0       	ldi	r25, 0x00	; 0
     ff2:	ac d8       	rcall	.-3752   	; 0x14c <delay>
     ff4:	82 e0       	ldi	r24, 0x02	; 2
     ff6:	7d da       	rcall	.-2822   	; 0x4f2 <ADC_Conversion>
     ff8:	86 39       	cpi	r24, 0x96	; 150
     ffa:	e0 f3       	brcs	.-8      	; 0xff4 <check_condition+0x6da>
     ffc:	22 e0       	ldi	r18, 0x02	; 2
     ffe:	30 e0       	ldi	r19, 0x00	; 0
    1000:	2b c6       	rjmp	.+3158   	; 0x1c58 <check_condition+0x133e>
    1002:	47 31       	cpi	r20, 0x17	; 23
    1004:	51 05       	cpc	r21, r1
    1006:	09 f0       	breq	.+2      	; 0x100a <check_condition+0x6f0>
    1008:	a5 c3       	rjmp	.+1866   	; 0x1754 <check_condition+0xe3a>
    100a:	a7 c4       	rjmp	.+2382   	; 0x195a <check_condition+0x1040>
    100c:	83 31       	cpi	r24, 0x13	; 19
    100e:	91 05       	cpc	r25, r1
    1010:	c9 f4       	brne	.+50     	; 0x1044 <check_condition+0x72a>
    1012:	64 31       	cpi	r22, 0x14	; 20
    1014:	71 05       	cpc	r23, r1
    1016:	49 f4       	brne	.+18     	; 0x102a <check_condition+0x710>
    1018:	45 31       	cpi	r20, 0x15	; 21
    101a:	51 05       	cpc	r21, r1
    101c:	09 f4       	brne	.+2      	; 0x1020 <check_condition+0x706>
    101e:	a0 c4       	rjmp	.+2368   	; 0x1960 <check_condition+0x1046>
    1020:	47 30       	cpi	r20, 0x07	; 7
    1022:	51 05       	cpc	r21, r1
    1024:	09 f0       	breq	.+2      	; 0x1028 <check_condition+0x70e>
    1026:	96 c3       	rjmp	.+1836   	; 0x1754 <check_condition+0xe3a>
    1028:	9e c4       	rjmp	.+2364   	; 0x1966 <check_condition+0x104c>
    102a:	62 31       	cpi	r22, 0x12	; 18
    102c:	71 05       	cpc	r23, r1
    102e:	09 f0       	breq	.+2      	; 0x1032 <check_condition+0x718>
    1030:	a6 c2       	rjmp	.+1356   	; 0x157e <check_condition+0xc64>
    1032:	41 31       	cpi	r20, 0x11	; 17
    1034:	51 05       	cpc	r21, r1
    1036:	09 f4       	brne	.+2      	; 0x103a <check_condition+0x720>
    1038:	99 c4       	rjmp	.+2354   	; 0x196c <check_condition+0x1052>
    103a:	49 30       	cpi	r20, 0x09	; 9
    103c:	51 05       	cpc	r21, r1
    103e:	09 f0       	breq	.+2      	; 0x1042 <check_condition+0x728>
    1040:	89 c3       	rjmp	.+1810   	; 0x1754 <check_condition+0xe3a>
    1042:	97 c4       	rjmp	.+2350   	; 0x1972 <check_condition+0x1058>
    1044:	84 31       	cpi	r24, 0x14	; 20
    1046:	91 05       	cpc	r25, r1
    1048:	e9 f4       	brne	.+58     	; 0x1084 <check_condition+0x76a>
    104a:	63 31       	cpi	r22, 0x13	; 19
    104c:	71 05       	cpc	r23, r1
    104e:	29 f4       	brne	.+10     	; 0x105a <check_condition+0x740>
    1050:	42 31       	cpi	r20, 0x12	; 18
    1052:	51 05       	cpc	r21, r1
    1054:	09 f0       	breq	.+2      	; 0x1058 <check_condition+0x73e>
    1056:	33 c6       	rjmp	.+3174   	; 0x1cbe <check_condition+0x13a4>
    1058:	8f c4       	rjmp	.+2334   	; 0x1978 <check_condition+0x105e>
    105a:	67 30       	cpi	r22, 0x07	; 7
    105c:	71 05       	cpc	r23, r1
    105e:	49 f4       	brne	.+18     	; 0x1072 <check_condition+0x758>
    1060:	48 30       	cpi	r20, 0x08	; 8
    1062:	51 05       	cpc	r21, r1
    1064:	09 f4       	brne	.+2      	; 0x1068 <check_condition+0x74e>
    1066:	8b c4       	rjmp	.+2326   	; 0x197e <check_condition+0x1064>
    1068:	46 30       	cpi	r20, 0x06	; 6
    106a:	51 05       	cpc	r21, r1
    106c:	09 f0       	breq	.+2      	; 0x1070 <check_condition+0x756>
    106e:	72 c3       	rjmp	.+1764   	; 0x1754 <check_condition+0xe3a>
    1070:	89 c4       	rjmp	.+2322   	; 0x1984 <check_condition+0x106a>
    1072:	65 31       	cpi	r22, 0x15	; 21
    1074:	71 05       	cpc	r23, r1
    1076:	09 f0       	breq	.+2      	; 0x107a <check_condition+0x760>
    1078:	93 c2       	rjmp	.+1318   	; 0x15a0 <check_condition+0xc86>
    107a:	45 32       	cpi	r20, 0x25	; 37
    107c:	51 05       	cpc	r21, r1
    107e:	09 f0       	breq	.+2      	; 0x1082 <check_condition+0x768>
    1080:	69 c3       	rjmp	.+1746   	; 0x1754 <check_condition+0xe3a>
    1082:	83 c4       	rjmp	.+2310   	; 0x198a <check_condition+0x1070>
    1084:	85 31       	cpi	r24, 0x15	; 21
    1086:	91 05       	cpc	r25, r1
    1088:	d9 f4       	brne	.+54     	; 0x10c0 <check_condition+0x7a6>
    108a:	64 31       	cpi	r22, 0x14	; 20
    108c:	71 05       	cpc	r23, r1
    108e:	09 f0       	breq	.+2      	; 0x1092 <check_condition+0x778>
    1090:	98 c2       	rjmp	.+1328   	; 0x15c2 <check_condition+0xca8>
    1092:	43 31       	cpi	r20, 0x13	; 19
    1094:	51 05       	cpc	r21, r1
    1096:	09 f4       	brne	.+2      	; 0x109a <check_condition+0x780>
    1098:	7b c4       	rjmp	.+2294   	; 0x1990 <check_condition+0x1076>
    109a:	47 30       	cpi	r20, 0x07	; 7
    109c:	51 05       	cpc	r21, r1
    109e:	09 f0       	breq	.+2      	; 0x10a2 <check_condition+0x788>
    10a0:	59 c3       	rjmp	.+1714   	; 0x1754 <check_condition+0xe3a>
    10a2:	7b da       	rcall	.-2826   	; 0x59a <blackline_data>
    10a4:	02 c0       	rjmp	.+4      	; 0x10aa <check_condition+0x790>
    10a6:	79 da       	rcall	.-2830   	; 0x59a <blackline_data>
    10a8:	5e db       	rcall	.-2372   	; 0x766 <blackline_lifting>
    10aa:	80 91 72 02 	lds	r24, 0x0272	; 0x800272 <Left_white_line>
    10ae:	87 39       	cpi	r24, 0x97	; 151
    10b0:	08 f0       	brcs	.+2      	; 0x10b4 <check_condition+0x79a>
    10b2:	09 c6       	rjmp	.+3090   	; 0x1cc6 <check_condition+0x13ac>
    10b4:	80 91 70 02 	lds	r24, 0x0270	; 0x800270 <Right_white_line>
    10b8:	87 39       	cpi	r24, 0x97	; 151
    10ba:	08 f0       	brcs	.+2      	; 0x10be <check_condition+0x7a4>
    10bc:	0a c6       	rjmp	.+3092   	; 0x1cd2 <check_condition+0x13b8>
    10be:	f3 cf       	rjmp	.-26     	; 0x10a6 <check_condition+0x78c>
    10c0:	86 31       	cpi	r24, 0x16	; 22
    10c2:	91 05       	cpc	r25, r1
    10c4:	69 f4       	brne	.+26     	; 0x10e0 <check_condition+0x7c6>
    10c6:	6e 30       	cpi	r22, 0x0E	; 14
    10c8:	71 05       	cpc	r23, r1
    10ca:	09 f0       	breq	.+2      	; 0x10ce <check_condition+0x7b4>
    10cc:	87 c2       	rjmp	.+1294   	; 0x15dc <check_condition+0xcc2>
    10ce:	4d 30       	cpi	r20, 0x0D	; 13
    10d0:	51 05       	cpc	r21, r1
    10d2:	09 f4       	brne	.+2      	; 0x10d6 <check_condition+0x7bc>
    10d4:	60 c4       	rjmp	.+2240   	; 0x1996 <check_condition+0x107c>
    10d6:	4f 30       	cpi	r20, 0x0F	; 15
    10d8:	51 05       	cpc	r21, r1
    10da:	09 f0       	breq	.+2      	; 0x10de <check_condition+0x7c4>
    10dc:	3b c3       	rjmp	.+1654   	; 0x1754 <check_condition+0xe3a>
    10de:	5e c4       	rjmp	.+2236   	; 0x199c <check_condition+0x1082>
    10e0:	87 31       	cpi	r24, 0x17	; 23
    10e2:	91 05       	cpc	r25, r1
    10e4:	c9 f4       	brne	.+50     	; 0x1118 <check_condition+0x7fe>
    10e6:	61 31       	cpi	r22, 0x11	; 17
    10e8:	71 05       	cpc	r23, r1
    10ea:	49 f4       	brne	.+18     	; 0x10fe <check_condition+0x7e4>
    10ec:	40 31       	cpi	r20, 0x10	; 16
    10ee:	51 05       	cpc	r21, r1
    10f0:	09 f4       	brne	.+2      	; 0x10f4 <check_condition+0x7da>
    10f2:	57 c4       	rjmp	.+2222   	; 0x19a2 <check_condition+0x1088>
    10f4:	42 31       	cpi	r20, 0x12	; 18
    10f6:	51 05       	cpc	r21, r1
    10f8:	09 f0       	breq	.+2      	; 0x10fc <check_condition+0x7e2>
    10fa:	2c c3       	rjmp	.+1624   	; 0x1754 <check_condition+0xe3a>
    10fc:	55 c4       	rjmp	.+2218   	; 0x19a8 <check_condition+0x108e>
    10fe:	68 31       	cpi	r22, 0x18	; 24
    1100:	71 05       	cpc	r23, r1
    1102:	09 f0       	breq	.+2      	; 0x1106 <check_condition+0x7ec>
    1104:	78 c2       	rjmp	.+1264   	; 0x15f6 <check_condition+0xcdc>
    1106:	49 31       	cpi	r20, 0x19	; 25
    1108:	51 05       	cpc	r21, r1
    110a:	09 f4       	brne	.+2      	; 0x110e <check_condition+0x7f4>
    110c:	50 c4       	rjmp	.+2208   	; 0x19ae <check_condition+0x1094>
    110e:	4a 31       	cpi	r20, 0x1A	; 26
    1110:	51 05       	cpc	r21, r1
    1112:	09 f0       	breq	.+2      	; 0x1116 <check_condition+0x7fc>
    1114:	1f c3       	rjmp	.+1598   	; 0x1754 <check_condition+0xe3a>
    1116:	4e c4       	rjmp	.+2204   	; 0x19b4 <check_condition+0x109a>
    1118:	88 31       	cpi	r24, 0x18	; 24
    111a:	91 05       	cpc	r25, r1
    111c:	c9 f4       	brne	.+50     	; 0x1150 <check_condition+0x836>
    111e:	67 31       	cpi	r22, 0x17	; 23
    1120:	71 05       	cpc	r23, r1
    1122:	29 f4       	brne	.+10     	; 0x112e <check_condition+0x814>
    1124:	41 31       	cpi	r20, 0x11	; 17
    1126:	51 05       	cpc	r21, r1
    1128:	09 f0       	breq	.+2      	; 0x112c <check_condition+0x812>
    112a:	14 c3       	rjmp	.+1576   	; 0x1754 <check_condition+0xe3a>
    112c:	46 c4       	rjmp	.+2188   	; 0x19ba <check_condition+0x10a0>
    112e:	69 31       	cpi	r22, 0x19	; 25
    1130:	71 05       	cpc	r23, r1
    1132:	29 f4       	brne	.+10     	; 0x113e <check_condition+0x824>
    1134:	46 32       	cpi	r20, 0x26	; 38
    1136:	51 05       	cpc	r21, r1
    1138:	09 f0       	breq	.+2      	; 0x113c <check_condition+0x822>
    113a:	0c c3       	rjmp	.+1560   	; 0x1754 <check_condition+0xe3a>
    113c:	41 c4       	rjmp	.+2178   	; 0x19c0 <check_condition+0x10a6>
    113e:	6a 31       	cpi	r22, 0x1A	; 26
    1140:	71 05       	cpc	r23, r1
    1142:	09 f0       	breq	.+2      	; 0x1146 <check_condition+0x82c>
    1144:	65 c2       	rjmp	.+1226   	; 0x1610 <check_condition+0xcf6>
    1146:	47 32       	cpi	r20, 0x27	; 39
    1148:	51 05       	cpc	r21, r1
    114a:	09 f0       	breq	.+2      	; 0x114e <check_condition+0x834>
    114c:	03 c3       	rjmp	.+1542   	; 0x1754 <check_condition+0xe3a>
    114e:	3b c4       	rjmp	.+2166   	; 0x19c6 <check_condition+0x10ac>
    1150:	89 31       	cpi	r24, 0x19	; 25
    1152:	91 05       	cpc	r25, r1
    1154:	49 f4       	brne	.+18     	; 0x1168 <check_condition+0x84e>
    1156:	68 31       	cpi	r22, 0x18	; 24
    1158:	71 05       	cpc	r23, r1
    115a:	09 f0       	breq	.+2      	; 0x115e <check_condition+0x844>
    115c:	67 c2       	rjmp	.+1230   	; 0x162c <check_condition+0xd12>
    115e:	47 31       	cpi	r20, 0x17	; 23
    1160:	51 05       	cpc	r21, r1
    1162:	09 f0       	breq	.+2      	; 0x1166 <check_condition+0x84c>
    1164:	f7 c2       	rjmp	.+1518   	; 0x1754 <check_condition+0xe3a>
    1166:	32 c4       	rjmp	.+2148   	; 0x19cc <check_condition+0x10b2>
    1168:	8a 31       	cpi	r24, 0x1A	; 26
    116a:	91 05       	cpc	r25, r1
    116c:	49 f4       	brne	.+18     	; 0x1180 <check_condition+0x866>
    116e:	68 31       	cpi	r22, 0x18	; 24
    1170:	71 05       	cpc	r23, r1
    1172:	09 f0       	breq	.+2      	; 0x1176 <check_condition+0x85c>
    1174:	68 c2       	rjmp	.+1232   	; 0x1646 <check_condition+0xd2c>
    1176:	47 31       	cpi	r20, 0x17	; 23
    1178:	51 05       	cpc	r21, r1
    117a:	09 f0       	breq	.+2      	; 0x117e <check_condition+0x864>
    117c:	eb c2       	rjmp	.+1494   	; 0x1754 <check_condition+0xe3a>
    117e:	29 c4       	rjmp	.+2130   	; 0x19d2 <check_condition+0x10b8>
    1180:	8b 31       	cpi	r24, 0x1B	; 27
    1182:	91 05       	cpc	r25, r1
    1184:	c9 f4       	brne	.+50     	; 0x11b8 <check_condition+0x89e>
    1186:	6a 30       	cpi	r22, 0x0A	; 10
    1188:	71 05       	cpc	r23, r1
    118a:	69 f4       	brne	.+26     	; 0x11a6 <check_condition+0x88c>
    118c:	43 30       	cpi	r20, 0x03	; 3
    118e:	51 05       	cpc	r21, r1
    1190:	09 f4       	brne	.+2      	; 0x1194 <check_condition+0x87a>
    1192:	22 c4       	rjmp	.+2116   	; 0x19d8 <check_condition+0x10be>
    1194:	4b 30       	cpi	r20, 0x0B	; 11
    1196:	51 05       	cpc	r21, r1
    1198:	09 f4       	brne	.+2      	; 0x119c <check_condition+0x882>
    119a:	21 c4       	rjmp	.+2114   	; 0x19de <check_condition+0x10c4>
    119c:	49 30       	cpi	r20, 0x09	; 9
    119e:	51 05       	cpc	r21, r1
    11a0:	09 f0       	breq	.+2      	; 0x11a4 <check_condition+0x88a>
    11a2:	d8 c2       	rjmp	.+1456   	; 0x1754 <check_condition+0xe3a>
    11a4:	1f c4       	rjmp	.+2110   	; 0x19e4 <check_condition+0x10ca>
    11a6:	6b 31       	cpi	r22, 0x1B	; 27
    11a8:	71 05       	cpc	r23, r1
    11aa:	09 f0       	breq	.+2      	; 0x11ae <check_condition+0x894>
    11ac:	bf c2       	rjmp	.+1406   	; 0x172c <check_condition+0xe12>
    11ae:	4a 30       	cpi	r20, 0x0A	; 10
    11b0:	51 05       	cpc	r21, r1
    11b2:	09 f0       	breq	.+2      	; 0x11b6 <check_condition+0x89c>
    11b4:	cf c2       	rjmp	.+1438   	; 0x1754 <check_condition+0xe3a>
    11b6:	19 c4       	rjmp	.+2098   	; 0x19ea <check_condition+0x10d0>
    11b8:	8c 31       	cpi	r24, 0x1C	; 28
    11ba:	91 05       	cpc	r25, r1
    11bc:	69 f4       	brne	.+26     	; 0x11d8 <check_condition+0x8be>
    11be:	61 15       	cp	r22, r1
    11c0:	71 05       	cpc	r23, r1
    11c2:	09 f0       	breq	.+2      	; 0x11c6 <check_condition+0x8ac>
    11c4:	4d c2       	rjmp	.+1178   	; 0x1660 <check_condition+0xd46>
    11c6:	4d 30       	cpi	r20, 0x0D	; 13
    11c8:	51 05       	cpc	r21, r1
    11ca:	09 f4       	brne	.+2      	; 0x11ce <check_condition+0x8b4>
    11cc:	11 c4       	rjmp	.+2082   	; 0x19f0 <check_condition+0x10d6>
    11ce:	41 30       	cpi	r20, 0x01	; 1
    11d0:	51 05       	cpc	r21, r1
    11d2:	09 f0       	breq	.+2      	; 0x11d6 <check_condition+0x8bc>
    11d4:	b7 c2       	rjmp	.+1390   	; 0x1744 <check_condition+0xe2a>
    11d6:	0f c4       	rjmp	.+2078   	; 0x19f6 <check_condition+0x10dc>
    11d8:	8d 31       	cpi	r24, 0x1D	; 29
    11da:	91 05       	cpc	r25, r1
    11dc:	89 f4       	brne	.+34     	; 0x1200 <check_condition+0x8e6>
    11de:	61 30       	cpi	r22, 0x01	; 1
    11e0:	71 05       	cpc	r23, r1
    11e2:	09 f0       	breq	.+2      	; 0x11e6 <check_condition+0x8cc>
    11e4:	48 c2       	rjmp	.+1168   	; 0x1676 <check_condition+0xd5c>
    11e6:	41 15       	cp	r20, r1
    11e8:	51 05       	cpc	r21, r1
    11ea:	09 f4       	brne	.+2      	; 0x11ee <check_condition+0x8d4>
    11ec:	07 c4       	rjmp	.+2062   	; 0x19fc <check_condition+0x10e2>
    11ee:	42 30       	cpi	r20, 0x02	; 2
    11f0:	51 05       	cpc	r21, r1
    11f2:	09 f4       	brne	.+2      	; 0x11f6 <check_condition+0x8dc>
    11f4:	06 c4       	rjmp	.+2060   	; 0x1a02 <check_condition+0x10e8>
    11f6:	4c 30       	cpi	r20, 0x0C	; 12
    11f8:	51 05       	cpc	r21, r1
    11fa:	09 f0       	breq	.+2      	; 0x11fe <check_condition+0x8e4>
    11fc:	ab c2       	rjmp	.+1366   	; 0x1754 <check_condition+0xe3a>
    11fe:	04 c4       	rjmp	.+2056   	; 0x1a08 <check_condition+0x10ee>
    1200:	8e 31       	cpi	r24, 0x1E	; 30
    1202:	91 05       	cpc	r25, r1
    1204:	69 f4       	brne	.+26     	; 0x1220 <check_condition+0x906>
    1206:	62 30       	cpi	r22, 0x02	; 2
    1208:	71 05       	cpc	r23, r1
    120a:	09 f0       	breq	.+2      	; 0x120e <check_condition+0x8f4>
    120c:	40 c2       	rjmp	.+1152   	; 0x168e <check_condition+0xd74>
    120e:	43 30       	cpi	r20, 0x03	; 3
    1210:	51 05       	cpc	r21, r1
    1212:	09 f4       	brne	.+2      	; 0x1216 <check_condition+0x8fc>
    1214:	fc c3       	rjmp	.+2040   	; 0x1a0e <check_condition+0x10f4>
    1216:	41 30       	cpi	r20, 0x01	; 1
    1218:	51 05       	cpc	r21, r1
    121a:	09 f0       	breq	.+2      	; 0x121e <check_condition+0x904>
    121c:	9b c2       	rjmp	.+1334   	; 0x1754 <check_condition+0xe3a>
    121e:	fa c3       	rjmp	.+2036   	; 0x1a14 <check_condition+0x10fa>
    1220:	8f 31       	cpi	r24, 0x1F	; 31
    1222:	91 05       	cpc	r25, r1
    1224:	69 f4       	brne	.+26     	; 0x1240 <check_condition+0x926>
    1226:	64 30       	cpi	r22, 0x04	; 4
    1228:	71 05       	cpc	r23, r1
    122a:	09 f0       	breq	.+2      	; 0x122e <check_condition+0x914>
    122c:	3c c2       	rjmp	.+1144   	; 0x16a6 <check_condition+0xd8c>
    122e:	45 30       	cpi	r20, 0x05	; 5
    1230:	51 05       	cpc	r21, r1
    1232:	09 f4       	brne	.+2      	; 0x1236 <check_condition+0x91c>
    1234:	f2 c3       	rjmp	.+2020   	; 0x1a1a <check_condition+0x1100>
    1236:	43 30       	cpi	r20, 0x03	; 3
    1238:	51 05       	cpc	r21, r1
    123a:	09 f0       	breq	.+2      	; 0x123e <check_condition+0x924>
    123c:	8b c2       	rjmp	.+1302   	; 0x1754 <check_condition+0xe3a>
    123e:	f0 c3       	rjmp	.+2016   	; 0x1a20 <check_condition+0x1106>
    1240:	80 32       	cpi	r24, 0x20	; 32
    1242:	91 05       	cpc	r25, r1
    1244:	89 f4       	brne	.+34     	; 0x1268 <check_condition+0x94e>
    1246:	65 30       	cpi	r22, 0x05	; 5
    1248:	71 05       	cpc	r23, r1
    124a:	09 f0       	breq	.+2      	; 0x124e <check_condition+0x934>
    124c:	38 c2       	rjmp	.+1136   	; 0x16be <check_condition+0xda4>
    124e:	46 30       	cpi	r20, 0x06	; 6
    1250:	51 05       	cpc	r21, r1
    1252:	09 f4       	brne	.+2      	; 0x1256 <check_condition+0x93c>
    1254:	e8 c3       	rjmp	.+2000   	; 0x1a26 <check_condition+0x110c>
    1256:	44 30       	cpi	r20, 0x04	; 4
    1258:	51 05       	cpc	r21, r1
    125a:	09 f4       	brne	.+2      	; 0x125e <check_condition+0x944>
    125c:	e7 c3       	rjmp	.+1998   	; 0x1a2c <check_condition+0x1112>
    125e:	48 30       	cpi	r20, 0x08	; 8
    1260:	51 05       	cpc	r21, r1
    1262:	09 f0       	breq	.+2      	; 0x1266 <check_condition+0x94c>
    1264:	77 c2       	rjmp	.+1262   	; 0x1754 <check_condition+0xe3a>
    1266:	e5 c3       	rjmp	.+1994   	; 0x1a32 <check_condition+0x1118>
    1268:	81 32       	cpi	r24, 0x21	; 33
    126a:	91 05       	cpc	r25, r1
    126c:	69 f4       	brne	.+26     	; 0x1288 <check_condition+0x96e>
    126e:	66 30       	cpi	r22, 0x06	; 6
    1270:	71 05       	cpc	r23, r1
    1272:	09 f0       	breq	.+2      	; 0x1276 <check_condition+0x95c>
    1274:	2f c2       	rjmp	.+1118   	; 0x16d4 <check_condition+0xdba>
    1276:	45 30       	cpi	r20, 0x05	; 5
    1278:	51 05       	cpc	r21, r1
    127a:	09 f4       	brne	.+2      	; 0x127e <check_condition+0x964>
    127c:	dd c3       	rjmp	.+1978   	; 0x1a38 <check_condition+0x111e>
    127e:	47 30       	cpi	r20, 0x07	; 7
    1280:	51 05       	cpc	r21, r1
    1282:	09 f0       	breq	.+2      	; 0x1286 <check_condition+0x96c>
    1284:	67 c2       	rjmp	.+1230   	; 0x1754 <check_condition+0xe3a>
    1286:	db c3       	rjmp	.+1974   	; 0x1a3e <check_condition+0x1124>
    1288:	82 32       	cpi	r24, 0x22	; 34
    128a:	91 05       	cpc	r25, r1
    128c:	49 f4       	brne	.+18     	; 0x12a0 <check_condition+0x986>
    128e:	66 31       	cpi	r22, 0x16	; 22
    1290:	71 05       	cpc	r23, r1
    1292:	09 f0       	breq	.+2      	; 0x1296 <check_condition+0x97c>
    1294:	29 c2       	rjmp	.+1106   	; 0x16e8 <check_condition+0xdce>
    1296:	4e 30       	cpi	r20, 0x0E	; 14
    1298:	51 05       	cpc	r21, r1
    129a:	09 f0       	breq	.+2      	; 0x129e <check_condition+0x984>
    129c:	5b c2       	rjmp	.+1206   	; 0x1754 <check_condition+0xe3a>
    129e:	d2 c3       	rjmp	.+1956   	; 0x1a44 <check_condition+0x112a>
    12a0:	83 32       	cpi	r24, 0x23	; 35
    12a2:	91 05       	cpc	r25, r1
    12a4:	69 f4       	brne	.+26     	; 0x12c0 <check_condition+0x9a6>
    12a6:	6f 30       	cpi	r22, 0x0F	; 15
    12a8:	71 05       	cpc	r23, r1
    12aa:	09 f0       	breq	.+2      	; 0x12ae <check_condition+0x994>
    12ac:	24 c2       	rjmp	.+1096   	; 0x16f6 <check_condition+0xddc>
    12ae:	40 31       	cpi	r20, 0x10	; 16
    12b0:	51 05       	cpc	r21, r1
    12b2:	09 f4       	brne	.+2      	; 0x12b6 <check_condition+0x99c>
    12b4:	ca c3       	rjmp	.+1940   	; 0x1a4a <check_condition+0x1130>
    12b6:	4e 30       	cpi	r20, 0x0E	; 14
    12b8:	51 05       	cpc	r21, r1
    12ba:	09 f0       	breq	.+2      	; 0x12be <check_condition+0x9a4>
    12bc:	4b c2       	rjmp	.+1174   	; 0x1754 <check_condition+0xe3a>
    12be:	c8 c3       	rjmp	.+1936   	; 0x1a50 <check_condition+0x1136>
    12c0:	84 32       	cpi	r24, 0x24	; 36
    12c2:	91 05       	cpc	r25, r1
    12c4:	69 f4       	brne	.+26     	; 0x12e0 <check_condition+0x9c6>
    12c6:	63 31       	cpi	r22, 0x13	; 19
    12c8:	71 05       	cpc	r23, r1
    12ca:	09 f0       	breq	.+2      	; 0x12ce <check_condition+0x9b4>
    12cc:	1e c2       	rjmp	.+1084   	; 0x170a <check_condition+0xdf0>
    12ce:	44 31       	cpi	r20, 0x14	; 20
    12d0:	51 05       	cpc	r21, r1
    12d2:	09 f4       	brne	.+2      	; 0x12d6 <check_condition+0x9bc>
    12d4:	c0 c3       	rjmp	.+1920   	; 0x1a56 <check_condition+0x113c>
    12d6:	42 31       	cpi	r20, 0x12	; 18
    12d8:	51 05       	cpc	r21, r1
    12da:	09 f0       	breq	.+2      	; 0x12de <check_condition+0x9c4>
    12dc:	3b c2       	rjmp	.+1142   	; 0x1754 <check_condition+0xe3a>
    12de:	be c3       	rjmp	.+1916   	; 0x1a5c <check_condition+0x1142>
    12e0:	85 32       	cpi	r24, 0x25	; 37
    12e2:	91 05       	cpc	r25, r1
    12e4:	49 f4       	brne	.+18     	; 0x12f8 <check_condition+0x9de>
    12e6:	65 31       	cpi	r22, 0x15	; 21
    12e8:	71 05       	cpc	r23, r1
    12ea:	09 f0       	breq	.+2      	; 0x12ee <check_condition+0x9d4>
    12ec:	18 c2       	rjmp	.+1072   	; 0x171e <check_condition+0xe04>
    12ee:	44 31       	cpi	r20, 0x14	; 20
    12f0:	51 05       	cpc	r21, r1
    12f2:	09 f0       	breq	.+2      	; 0x12f6 <check_condition+0x9dc>
    12f4:	2f c2       	rjmp	.+1118   	; 0x1754 <check_condition+0xe3a>
    12f6:	b5 c3       	rjmp	.+1898   	; 0x1a62 <check_condition+0x1148>
    12f8:	86 32       	cpi	r24, 0x26	; 38
    12fa:	91 05       	cpc	r25, r1
    12fc:	49 f4       	brne	.+18     	; 0x1310 <check_condition+0x9f6>
    12fe:	69 31       	cpi	r22, 0x19	; 25
    1300:	71 05       	cpc	r23, r1
    1302:	09 f0       	breq	.+2      	; 0x1306 <check_condition+0x9ec>
    1304:	13 c2       	rjmp	.+1062   	; 0x172c <check_condition+0xe12>
    1306:	48 31       	cpi	r20, 0x18	; 24
    1308:	51 05       	cpc	r21, r1
    130a:	09 f0       	breq	.+2      	; 0x130e <check_condition+0x9f4>
    130c:	23 c2       	rjmp	.+1094   	; 0x1754 <check_condition+0xe3a>
    130e:	ac c3       	rjmp	.+1880   	; 0x1a68 <check_condition+0x114e>
    1310:	87 97       	sbiw	r24, 0x27	; 39
    1312:	09 f0       	breq	.+2      	; 0x1316 <check_condition+0x9fc>
    1314:	0b c2       	rjmp	.+1046   	; 0x172c <check_condition+0xe12>
    1316:	6a 31       	cpi	r22, 0x1A	; 26
    1318:	71 05       	cpc	r23, r1
    131a:	09 f0       	breq	.+2      	; 0x131e <check_condition+0xa04>
    131c:	07 c2       	rjmp	.+1038   	; 0x172c <check_condition+0xe12>
    131e:	48 31       	cpi	r20, 0x18	; 24
    1320:	51 05       	cpc	r21, r1
    1322:	09 f0       	breq	.+2      	; 0x1326 <check_condition+0xa0c>
    1324:	17 c2       	rjmp	.+1070   	; 0x1754 <check_condition+0xe3a>
    1326:	a3 c3       	rjmp	.+1862   	; 0x1a6e <check_condition+0x1154>
    1328:	61 15       	cp	r22, r1
    132a:	71 05       	cpc	r23, r1
    132c:	09 f0       	breq	.+2      	; 0x1330 <check_condition+0xa16>
    132e:	d7 c4       	rjmp	.+2478   	; 0x1cde <check_condition+0x13c4>
    1330:	41 30       	cpi	r20, 0x01	; 1
    1332:	51 05       	cpc	r21, r1
    1334:	09 f4       	brne	.+2      	; 0x1338 <check_condition+0xa1e>
    1336:	9e c3       	rjmp	.+1852   	; 0x1a74 <check_condition+0x115a>
    1338:	4c 31       	cpi	r20, 0x1C	; 28
    133a:	51 05       	cpc	r21, r1
    133c:	09 f4       	brne	.+2      	; 0x1340 <check_condition+0xa26>
    133e:	9d c3       	rjmp	.+1850   	; 0x1a7a <check_condition+0x1160>
    1340:	4d 30       	cpi	r20, 0x0D	; 13
    1342:	51 05       	cpc	r21, r1
    1344:	09 f0       	breq	.+2      	; 0x1348 <check_condition+0xa2e>
    1346:	fe c1       	rjmp	.+1020   	; 0x1744 <check_condition+0xe2a>
    1348:	9b c3       	rjmp	.+1846   	; 0x1a80 <check_condition+0x1166>
    134a:	61 30       	cpi	r22, 0x01	; 1
    134c:	71 05       	cpc	r23, r1
    134e:	09 f0       	breq	.+2      	; 0x1352 <check_condition+0xa38>
    1350:	ed c1       	rjmp	.+986    	; 0x172c <check_condition+0xe12>
    1352:	ca 01       	movw	r24, r20
    1354:	8d 7f       	andi	r24, 0xFD	; 253
    1356:	89 2b       	or	r24, r25
    1358:	09 f4       	brne	.+2      	; 0x135c <check_condition+0xa42>
    135a:	95 c3       	rjmp	.+1834   	; 0x1a86 <check_condition+0x116c>
    135c:	4d 31       	cpi	r20, 0x1D	; 29
    135e:	51 05       	cpc	r21, r1
    1360:	09 f4       	brne	.+2      	; 0x1364 <check_condition+0xa4a>
    1362:	94 c3       	rjmp	.+1832   	; 0x1a8c <check_condition+0x1172>
    1364:	4c 30       	cpi	r20, 0x0C	; 12
    1366:	51 05       	cpc	r21, r1
    1368:	09 f0       	breq	.+2      	; 0x136c <check_condition+0xa52>
    136a:	f4 c1       	rjmp	.+1000   	; 0x1754 <check_condition+0xe3a>
    136c:	92 c3       	rjmp	.+1828   	; 0x1a92 <check_condition+0x1178>
    136e:	62 30       	cpi	r22, 0x02	; 2
    1370:	71 05       	cpc	r23, r1
    1372:	09 f0       	breq	.+2      	; 0x1376 <check_condition+0xa5c>
    1374:	db c1       	rjmp	.+950    	; 0x172c <check_condition+0xe12>
    1376:	9a 01       	movw	r18, r20
    1378:	2d 7f       	andi	r18, 0xFD	; 253
    137a:	21 30       	cpi	r18, 0x01	; 1
    137c:	31 05       	cpc	r19, r1
    137e:	09 f4       	brne	.+2      	; 0x1382 <check_condition+0xa68>
    1380:	6b c4       	rjmp	.+2262   	; 0x1c58 <check_condition+0x133e>
    1382:	4e 31       	cpi	r20, 0x1E	; 30
    1384:	51 05       	cpc	r21, r1
    1386:	09 f0       	breq	.+2      	; 0x138a <check_condition+0xa70>
    1388:	e5 c1       	rjmp	.+970    	; 0x1754 <check_condition+0xe3a>
    138a:	86 c3       	rjmp	.+1804   	; 0x1a98 <check_condition+0x117e>
    138c:	63 30       	cpi	r22, 0x03	; 3
    138e:	71 05       	cpc	r23, r1
    1390:	09 f0       	breq	.+2      	; 0x1394 <check_condition+0xa7a>
    1392:	cc c1       	rjmp	.+920    	; 0x172c <check_condition+0xe12>
    1394:	ca 01       	movw	r24, r20
    1396:	87 7f       	andi	r24, 0xF7	; 247
    1398:	02 97       	sbiw	r24, 0x02	; 2
    139a:	09 f4       	brne	.+2      	; 0x139e <check_condition+0xa84>
    139c:	80 c3       	rjmp	.+1792   	; 0x1a9e <check_condition+0x1184>
    139e:	44 30       	cpi	r20, 0x04	; 4
    13a0:	51 05       	cpc	r21, r1
    13a2:	09 f0       	breq	.+2      	; 0x13a6 <check_condition+0xa8c>
    13a4:	d7 c1       	rjmp	.+942    	; 0x1754 <check_condition+0xe3a>
    13a6:	7e c3       	rjmp	.+1788   	; 0x1aa4 <check_condition+0x118a>
    13a8:	64 30       	cpi	r22, 0x04	; 4
    13aa:	71 05       	cpc	r23, r1
    13ac:	09 f0       	breq	.+2      	; 0x13b0 <check_condition+0xa96>
    13ae:	be c1       	rjmp	.+892    	; 0x172c <check_condition+0xe12>
    13b0:	43 30       	cpi	r20, 0x03	; 3
    13b2:	51 05       	cpc	r21, r1
    13b4:	09 f4       	brne	.+2      	; 0x13b8 <check_condition+0xa9e>
    13b6:	79 c3       	rjmp	.+1778   	; 0x1aaa <check_condition+0x1190>
    13b8:	45 30       	cpi	r20, 0x05	; 5
    13ba:	51 05       	cpc	r21, r1
    13bc:	09 f4       	brne	.+2      	; 0x13c0 <check_condition+0xaa6>
    13be:	78 c3       	rjmp	.+1776   	; 0x1ab0 <check_condition+0x1196>
    13c0:	4f 31       	cpi	r20, 0x1F	; 31
    13c2:	51 05       	cpc	r21, r1
    13c4:	09 f0       	breq	.+2      	; 0x13c8 <check_condition+0xaae>
    13c6:	c6 c1       	rjmp	.+908    	; 0x1754 <check_condition+0xe3a>
    13c8:	76 c3       	rjmp	.+1772   	; 0x1ab6 <check_condition+0x119c>
    13ca:	65 30       	cpi	r22, 0x05	; 5
    13cc:	71 05       	cpc	r23, r1
    13ce:	09 f0       	breq	.+2      	; 0x13d2 <check_condition+0xab8>
    13d0:	ad c1       	rjmp	.+858    	; 0x172c <check_condition+0xe12>
    13d2:	ca 01       	movw	r24, r20
    13d4:	8d 7f       	andi	r24, 0xFD	; 253
    13d6:	04 97       	sbiw	r24, 0x04	; 4
    13d8:	09 f4       	brne	.+2      	; 0x13dc <check_condition+0xac2>
    13da:	70 c3       	rjmp	.+1760   	; 0x1abc <check_condition+0x11a2>
    13dc:	40 32       	cpi	r20, 0x20	; 32
    13de:	51 05       	cpc	r21, r1
    13e0:	09 f4       	brne	.+2      	; 0x13e4 <check_condition+0xaca>
    13e2:	6f c3       	rjmp	.+1758   	; 0x1ac2 <check_condition+0x11a8>
    13e4:	48 30       	cpi	r20, 0x08	; 8
    13e6:	51 05       	cpc	r21, r1
    13e8:	09 f0       	breq	.+2      	; 0x13ec <check_condition+0xad2>
    13ea:	b4 c1       	rjmp	.+872    	; 0x1754 <check_condition+0xe3a>
    13ec:	6d c3       	rjmp	.+1754   	; 0x1ac8 <check_condition+0x11ae>
    13ee:	66 30       	cpi	r22, 0x06	; 6
    13f0:	71 05       	cpc	r23, r1
    13f2:	09 f0       	breq	.+2      	; 0x13f6 <check_condition+0xadc>
    13f4:	9b c1       	rjmp	.+822    	; 0x172c <check_condition+0xe12>
    13f6:	ca 01       	movw	r24, r20
    13f8:	8d 7f       	andi	r24, 0xFD	; 253
    13fa:	05 97       	sbiw	r24, 0x05	; 5
    13fc:	09 f4       	brne	.+2      	; 0x1400 <check_condition+0xae6>
    13fe:	67 c3       	rjmp	.+1742   	; 0x1ace <check_condition+0x11b4>
    1400:	41 32       	cpi	r20, 0x21	; 33
    1402:	51 05       	cpc	r21, r1
    1404:	09 f0       	breq	.+2      	; 0x1408 <check_condition+0xaee>
    1406:	a6 c1       	rjmp	.+844    	; 0x1754 <check_condition+0xe3a>
    1408:	65 c3       	rjmp	.+1738   	; 0x1ad4 <check_condition+0x11ba>
    140a:	67 30       	cpi	r22, 0x07	; 7
    140c:	71 05       	cpc	r23, r1
    140e:	09 f0       	breq	.+2      	; 0x1412 <check_condition+0xaf8>
    1410:	8d c1       	rjmp	.+794    	; 0x172c <check_condition+0xe12>
    1412:	46 30       	cpi	r20, 0x06	; 6
    1414:	51 05       	cpc	r21, r1
    1416:	09 f4       	brne	.+2      	; 0x141a <check_condition+0xb00>
    1418:	60 c3       	rjmp	.+1728   	; 0x1ada <check_condition+0x11c0>
    141a:	48 30       	cpi	r20, 0x08	; 8
    141c:	51 05       	cpc	r21, r1
    141e:	09 f4       	brne	.+2      	; 0x1422 <check_condition+0xb08>
    1420:	5f c3       	rjmp	.+1726   	; 0x1ae0 <check_condition+0x11c6>
    1422:	44 31       	cpi	r20, 0x14	; 20
    1424:	51 05       	cpc	r21, r1
    1426:	09 f0       	breq	.+2      	; 0x142a <check_condition+0xb10>
    1428:	95 c1       	rjmp	.+810    	; 0x1754 <check_condition+0xe3a>
    142a:	5d c3       	rjmp	.+1722   	; 0x1ae6 <check_condition+0x11cc>
    142c:	68 30       	cpi	r22, 0x08	; 8
    142e:	71 05       	cpc	r23, r1
    1430:	09 f0       	breq	.+2      	; 0x1434 <check_condition+0xb1a>
    1432:	7c c1       	rjmp	.+760    	; 0x172c <check_condition+0xe12>
    1434:	49 30       	cpi	r20, 0x09	; 9
    1436:	51 05       	cpc	r21, r1
    1438:	09 f4       	brne	.+2      	; 0x143c <check_condition+0xb22>
    143a:	58 c3       	rjmp	.+1712   	; 0x1aec <check_condition+0x11d2>
    143c:	4d 7f       	andi	r20, 0xFD	; 253
    143e:	45 30       	cpi	r20, 0x05	; 5
    1440:	51 05       	cpc	r21, r1
    1442:	09 f0       	breq	.+2      	; 0x1446 <check_condition+0xb2c>
    1444:	87 c1       	rjmp	.+782    	; 0x1754 <check_condition+0xe3a>
    1446:	55 c3       	rjmp	.+1706   	; 0x1af2 <check_condition+0x11d8>
    1448:	69 30       	cpi	r22, 0x09	; 9
    144a:	71 05       	cpc	r23, r1
    144c:	09 f0       	breq	.+2      	; 0x1450 <check_condition+0xb36>
    144e:	6e c1       	rjmp	.+732    	; 0x172c <check_condition+0xe12>
    1450:	ca 01       	movw	r24, r20
    1452:	8d 7f       	andi	r24, 0xFD	; 253
    1454:	08 97       	sbiw	r24, 0x08	; 8
    1456:	09 f4       	brne	.+2      	; 0x145a <check_condition+0xb40>
    1458:	4f c3       	rjmp	.+1694   	; 0x1af8 <check_condition+0x11de>
    145a:	42 31       	cpi	r20, 0x12	; 18
    145c:	51 05       	cpc	r21, r1
    145e:	09 f0       	breq	.+2      	; 0x1462 <check_condition+0xb48>
    1460:	79 c1       	rjmp	.+754    	; 0x1754 <check_condition+0xe3a>
    1462:	4d c3       	rjmp	.+1690   	; 0x1afe <check_condition+0x11e4>
    1464:	6a 30       	cpi	r22, 0x0A	; 10
    1466:	71 05       	cpc	r23, r1
    1468:	09 f0       	breq	.+2      	; 0x146c <check_condition+0xb52>
    146a:	60 c1       	rjmp	.+704    	; 0x172c <check_condition+0xe12>
    146c:	4f 7e       	andi	r20, 0xEF	; 239
    146e:	4b 30       	cpi	r20, 0x0B	; 11
    1470:	51 05       	cpc	r21, r1
    1472:	09 f0       	breq	.+2      	; 0x1476 <check_condition+0xb5c>
    1474:	6f c1       	rjmp	.+734    	; 0x1754 <check_condition+0xe3a>
    1476:	46 c3       	rjmp	.+1676   	; 0x1b04 <check_condition+0x11ea>
    1478:	6b 30       	cpi	r22, 0x0B	; 11
    147a:	71 05       	cpc	r23, r1
    147c:	09 f0       	breq	.+2      	; 0x1480 <check_condition+0xb66>
    147e:	56 c1       	rjmp	.+684    	; 0x172c <check_condition+0xe12>
    1480:	4a 30       	cpi	r20, 0x0A	; 10
    1482:	51 05       	cpc	r21, r1
    1484:	09 f4       	brne	.+2      	; 0x1488 <check_condition+0xb6e>
    1486:	41 c3       	rjmp	.+1666   	; 0x1b0a <check_condition+0x11f0>
    1488:	4c 30       	cpi	r20, 0x0C	; 12
    148a:	51 05       	cpc	r21, r1
    148c:	09 f4       	brne	.+2      	; 0x1490 <check_condition+0xb76>
    148e:	40 c3       	rjmp	.+1664   	; 0x1b10 <check_condition+0x11f6>
    1490:	40 31       	cpi	r20, 0x10	; 16
    1492:	51 05       	cpc	r21, r1
    1494:	09 f0       	breq	.+2      	; 0x1498 <check_condition+0xb7e>
    1496:	5e c1       	rjmp	.+700    	; 0x1754 <check_condition+0xe3a>
    1498:	3e c3       	rjmp	.+1660   	; 0x1b16 <check_condition+0x11fc>
    149a:	6c 30       	cpi	r22, 0x0C	; 12
    149c:	71 05       	cpc	r23, r1
    149e:	09 f0       	breq	.+2      	; 0x14a2 <check_condition+0xb88>
    14a0:	45 c1       	rjmp	.+650    	; 0x172c <check_condition+0xe12>
    14a2:	4d 30       	cpi	r20, 0x0D	; 13
    14a4:	51 05       	cpc	r21, r1
    14a6:	09 f4       	brne	.+2      	; 0x14aa <check_condition+0xb90>
    14a8:	39 c3       	rjmp	.+1650   	; 0x1b1c <check_condition+0x1202>
    14aa:	4b 30       	cpi	r20, 0x0B	; 11
    14ac:	51 05       	cpc	r21, r1
    14ae:	09 f4       	brne	.+2      	; 0x14b2 <check_condition+0xb98>
    14b0:	38 c3       	rjmp	.+1648   	; 0x1b22 <check_condition+0x1208>
    14b2:	41 30       	cpi	r20, 0x01	; 1
    14b4:	51 05       	cpc	r21, r1
    14b6:	09 f0       	breq	.+2      	; 0x14ba <check_condition+0xba0>
    14b8:	4d c1       	rjmp	.+666    	; 0x1754 <check_condition+0xe3a>
    14ba:	36 c3       	rjmp	.+1644   	; 0x1b28 <check_condition+0x120e>
    14bc:	6d 30       	cpi	r22, 0x0D	; 13
    14be:	71 05       	cpc	r23, r1
    14c0:	09 f0       	breq	.+2      	; 0x14c4 <check_condition+0xbaa>
    14c2:	34 c1       	rjmp	.+616    	; 0x172c <check_condition+0xe12>
    14c4:	ca 01       	movw	r24, r20
    14c6:	8d 7f       	andi	r24, 0xFD	; 253
    14c8:	0c 97       	sbiw	r24, 0x0c	; 12
    14ca:	09 f4       	brne	.+2      	; 0x14ce <check_condition+0xbb4>
    14cc:	30 c3       	rjmp	.+1632   	; 0x1b2e <check_condition+0x1214>
    14ce:	45 2b       	or	r20, r21
    14d0:	09 f0       	breq	.+2      	; 0x14d4 <check_condition+0xbba>
    14d2:	40 c1       	rjmp	.+640    	; 0x1754 <check_condition+0xe3a>
    14d4:	2f c3       	rjmp	.+1630   	; 0x1b34 <check_condition+0x121a>
    14d6:	6e 30       	cpi	r22, 0x0E	; 14
    14d8:	71 05       	cpc	r23, r1
    14da:	09 f0       	breq	.+2      	; 0x14de <check_condition+0xbc4>
    14dc:	27 c1       	rjmp	.+590    	; 0x172c <check_condition+0xe12>
    14de:	ca 01       	movw	r24, r20
    14e0:	8d 7f       	andi	r24, 0xFD	; 253
    14e2:	0d 97       	sbiw	r24, 0x0d	; 13
    14e4:	09 f4       	brne	.+2      	; 0x14e8 <check_condition+0xbce>
    14e6:	29 c3       	rjmp	.+1618   	; 0x1b3a <check_condition+0x1220>
    14e8:	46 31       	cpi	r20, 0x16	; 22
    14ea:	51 05       	cpc	r21, r1
    14ec:	09 f0       	breq	.+2      	; 0x14f0 <check_condition+0xbd6>
    14ee:	32 c1       	rjmp	.+612    	; 0x1754 <check_condition+0xe3a>
    14f0:	27 c3       	rjmp	.+1614   	; 0x1b40 <check_condition+0x1226>
    14f2:	6f 30       	cpi	r22, 0x0F	; 15
    14f4:	71 05       	cpc	r23, r1
    14f6:	49 f4       	brne	.+18     	; 0x150a <check_condition+0xbf0>
    14f8:	4e 30       	cpi	r20, 0x0E	; 14
    14fa:	51 05       	cpc	r21, r1
    14fc:	09 f4       	brne	.+2      	; 0x1500 <check_condition+0xbe6>
    14fe:	23 c3       	rjmp	.+1606   	; 0x1b46 <check_condition+0x122c>
    1500:	40 31       	cpi	r20, 0x10	; 16
    1502:	51 05       	cpc	r21, r1
    1504:	09 f0       	breq	.+2      	; 0x1508 <check_condition+0xbee>
    1506:	26 c1       	rjmp	.+588    	; 0x1754 <check_condition+0xe3a>
    1508:	21 c3       	rjmp	.+1602   	; 0x1b4c <check_condition+0x1232>
    150a:	81 e0       	ldi	r24, 0x01	; 1
    150c:	63 37       	cpi	r22, 0x73	; 115
    150e:	71 05       	cpc	r23, r1
    1510:	09 f0       	breq	.+2      	; 0x1514 <check_condition+0xbfa>
    1512:	80 e0       	ldi	r24, 0x00	; 0
    1514:	88 23       	and	r24, r24
    1516:	09 f4       	brne	.+2      	; 0x151a <check_condition+0xc00>
    1518:	09 c1       	rjmp	.+530    	; 0x172c <check_condition+0xe12>
    151a:	81 e0       	ldi	r24, 0x01	; 1
    151c:	43 32       	cpi	r20, 0x23	; 35
    151e:	51 05       	cpc	r21, r1
    1520:	09 f0       	breq	.+2      	; 0x1524 <check_condition+0xc0a>
    1522:	80 e0       	ldi	r24, 0x00	; 0
    1524:	81 11       	cpse	r24, r1
    1526:	15 c3       	rjmp	.+1578   	; 0x1b52 <check_condition+0x1238>
    1528:	01 c1       	rjmp	.+514    	; 0x172c <check_condition+0xe12>
    152a:	60 31       	cpi	r22, 0x10	; 16
    152c:	71 05       	cpc	r23, r1
    152e:	09 f0       	breq	.+2      	; 0x1532 <check_condition+0xc18>
    1530:	fd c0       	rjmp	.+506    	; 0x172c <check_condition+0xe12>
    1532:	41 31       	cpi	r20, 0x11	; 17
    1534:	51 05       	cpc	r21, r1
    1536:	09 f4       	brne	.+2      	; 0x153a <check_condition+0xc20>
    1538:	0f c3       	rjmp	.+1566   	; 0x1b58 <check_condition+0x123e>
    153a:	4b 7f       	andi	r20, 0xFB	; 251
    153c:	4b 30       	cpi	r20, 0x0B	; 11
    153e:	51 05       	cpc	r21, r1
    1540:	09 f0       	breq	.+2      	; 0x1544 <check_condition+0xc2a>
    1542:	08 c1       	rjmp	.+528    	; 0x1754 <check_condition+0xe3a>
    1544:	0c c3       	rjmp	.+1560   	; 0x1b5e <check_condition+0x1244>
    1546:	61 31       	cpi	r22, 0x11	; 17
    1548:	71 05       	cpc	r23, r1
    154a:	09 f0       	breq	.+2      	; 0x154e <check_condition+0xc34>
    154c:	ef c0       	rjmp	.+478    	; 0x172c <check_condition+0xe12>
    154e:	ca 01       	movw	r24, r20
    1550:	8d 7f       	andi	r24, 0xFD	; 253
    1552:	40 97       	sbiw	r24, 0x10	; 16
    1554:	09 f4       	brne	.+2      	; 0x1558 <check_condition+0xc3e>
    1556:	06 c3       	rjmp	.+1548   	; 0x1b64 <check_condition+0x124a>
    1558:	47 31       	cpi	r20, 0x17	; 23
    155a:	51 05       	cpc	r21, r1
    155c:	09 f0       	breq	.+2      	; 0x1560 <check_condition+0xc46>
    155e:	fa c0       	rjmp	.+500    	; 0x1754 <check_condition+0xe3a>
    1560:	04 c3       	rjmp	.+1544   	; 0x1b6a <check_condition+0x1250>
    1562:	62 31       	cpi	r22, 0x12	; 18
    1564:	71 05       	cpc	r23, r1
    1566:	09 f0       	breq	.+2      	; 0x156a <check_condition+0xc50>
    1568:	e1 c0       	rjmp	.+450    	; 0x172c <check_condition+0xe12>
    156a:	ca 01       	movw	r24, r20
    156c:	8d 7f       	andi	r24, 0xFD	; 253
    156e:	41 97       	sbiw	r24, 0x11	; 17
    1570:	09 f4       	brne	.+2      	; 0x1574 <check_condition+0xc5a>
    1572:	fe c2       	rjmp	.+1532   	; 0x1b70 <check_condition+0x1256>
    1574:	49 30       	cpi	r20, 0x09	; 9
    1576:	51 05       	cpc	r21, r1
    1578:	09 f0       	breq	.+2      	; 0x157c <check_condition+0xc62>
    157a:	ec c0       	rjmp	.+472    	; 0x1754 <check_condition+0xe3a>
    157c:	fc c2       	rjmp	.+1528   	; 0x1b76 <check_condition+0x125c>
    157e:	63 31       	cpi	r22, 0x13	; 19
    1580:	71 05       	cpc	r23, r1
    1582:	09 f0       	breq	.+2      	; 0x1586 <check_condition+0xc6c>
    1584:	d3 c0       	rjmp	.+422    	; 0x172c <check_condition+0xe12>
    1586:	44 31       	cpi	r20, 0x14	; 20
    1588:	51 05       	cpc	r21, r1
    158a:	09 f4       	brne	.+2      	; 0x158e <check_condition+0xc74>
    158c:	f7 c2       	rjmp	.+1518   	; 0x1b7c <check_condition+0x1262>
    158e:	42 31       	cpi	r20, 0x12	; 18
    1590:	51 05       	cpc	r21, r1
    1592:	09 f4       	brne	.+2      	; 0x1596 <check_condition+0xc7c>
    1594:	f6 c2       	rjmp	.+1516   	; 0x1b82 <check_condition+0x1268>
    1596:	44 32       	cpi	r20, 0x24	; 36
    1598:	51 05       	cpc	r21, r1
    159a:	09 f0       	breq	.+2      	; 0x159e <check_condition+0xc84>
    159c:	db c0       	rjmp	.+438    	; 0x1754 <check_condition+0xe3a>
    159e:	f4 c2       	rjmp	.+1512   	; 0x1b88 <check_condition+0x126e>
    15a0:	64 31       	cpi	r22, 0x14	; 20
    15a2:	71 05       	cpc	r23, r1
    15a4:	09 f0       	breq	.+2      	; 0x15a8 <check_condition+0xc8e>
    15a6:	c2 c0       	rjmp	.+388    	; 0x172c <check_condition+0xe12>
    15a8:	43 31       	cpi	r20, 0x13	; 19
    15aa:	51 05       	cpc	r21, r1
    15ac:	09 f4       	brne	.+2      	; 0x15b0 <check_condition+0xc96>
    15ae:	ef c2       	rjmp	.+1502   	; 0x1b8e <check_condition+0x1274>
    15b0:	47 30       	cpi	r20, 0x07	; 7
    15b2:	51 05       	cpc	r21, r1
    15b4:	09 f4       	brne	.+2      	; 0x15b8 <check_condition+0xc9e>
    15b6:	ee c2       	rjmp	.+1500   	; 0x1b94 <check_condition+0x127a>
    15b8:	45 31       	cpi	r20, 0x15	; 21
    15ba:	51 05       	cpc	r21, r1
    15bc:	09 f0       	breq	.+2      	; 0x15c0 <check_condition+0xca6>
    15be:	ca c0       	rjmp	.+404    	; 0x1754 <check_condition+0xe3a>
    15c0:	ec c2       	rjmp	.+1496   	; 0x1b9a <check_condition+0x1280>
    15c2:	65 31       	cpi	r22, 0x15	; 21
    15c4:	71 05       	cpc	r23, r1
    15c6:	09 f0       	breq	.+2      	; 0x15ca <check_condition+0xcb0>
    15c8:	b1 c0       	rjmp	.+354    	; 0x172c <check_condition+0xe12>
    15ca:	45 32       	cpi	r20, 0x25	; 37
    15cc:	51 05       	cpc	r21, r1
    15ce:	09 f4       	brne	.+2      	; 0x15d2 <check_condition+0xcb8>
    15d0:	e7 c2       	rjmp	.+1486   	; 0x1ba0 <check_condition+0x1286>
    15d2:	44 31       	cpi	r20, 0x14	; 20
    15d4:	51 05       	cpc	r21, r1
    15d6:	09 f0       	breq	.+2      	; 0x15da <check_condition+0xcc0>
    15d8:	bd c0       	rjmp	.+378    	; 0x1754 <check_condition+0xe3a>
    15da:	e5 c2       	rjmp	.+1482   	; 0x1ba6 <check_condition+0x128c>
    15dc:	66 31       	cpi	r22, 0x16	; 22
    15de:	71 05       	cpc	r23, r1
    15e0:	09 f0       	breq	.+2      	; 0x15e4 <check_condition+0xcca>
    15e2:	a4 c0       	rjmp	.+328    	; 0x172c <check_condition+0xe12>
    15e4:	4e 30       	cpi	r20, 0x0E	; 14
    15e6:	51 05       	cpc	r21, r1
    15e8:	09 f4       	brne	.+2      	; 0x15ec <check_condition+0xcd2>
    15ea:	e0 c2       	rjmp	.+1472   	; 0x1bac <check_condition+0x1292>
    15ec:	42 32       	cpi	r20, 0x22	; 34
    15ee:	51 05       	cpc	r21, r1
    15f0:	09 f0       	breq	.+2      	; 0x15f4 <check_condition+0xcda>
    15f2:	b0 c0       	rjmp	.+352    	; 0x1754 <check_condition+0xe3a>
    15f4:	de c2       	rjmp	.+1468   	; 0x1bb2 <check_condition+0x1298>
    15f6:	67 31       	cpi	r22, 0x17	; 23
    15f8:	71 05       	cpc	r23, r1
    15fa:	09 f0       	breq	.+2      	; 0x15fe <check_condition+0xce4>
    15fc:	97 c0       	rjmp	.+302    	; 0x172c <check_condition+0xe12>
    15fe:	48 31       	cpi	r20, 0x18	; 24
    1600:	51 05       	cpc	r21, r1
    1602:	09 f4       	brne	.+2      	; 0x1606 <check_condition+0xcec>
    1604:	d9 c2       	rjmp	.+1458   	; 0x1bb8 <check_condition+0x129e>
    1606:	41 31       	cpi	r20, 0x11	; 17
    1608:	51 05       	cpc	r21, r1
    160a:	09 f0       	breq	.+2      	; 0x160e <check_condition+0xcf4>
    160c:	a3 c0       	rjmp	.+326    	; 0x1754 <check_condition+0xe3a>
    160e:	d7 c2       	rjmp	.+1454   	; 0x1bbe <check_condition+0x12a4>
    1610:	68 31       	cpi	r22, 0x18	; 24
    1612:	71 05       	cpc	r23, r1
    1614:	09 f0       	breq	.+2      	; 0x1618 <check_condition+0xcfe>
    1616:	8a c0       	rjmp	.+276    	; 0x172c <check_condition+0xe12>
    1618:	ca 01       	movw	r24, r20
    161a:	49 97       	sbiw	r24, 0x19	; 25
    161c:	02 97       	sbiw	r24, 0x02	; 2
    161e:	08 f4       	brcc	.+2      	; 0x1622 <check_condition+0xd08>
    1620:	d1 c2       	rjmp	.+1442   	; 0x1bc4 <check_condition+0x12aa>
    1622:	47 31       	cpi	r20, 0x17	; 23
    1624:	51 05       	cpc	r21, r1
    1626:	09 f0       	breq	.+2      	; 0x162a <check_condition+0xd10>
    1628:	95 c0       	rjmp	.+298    	; 0x1754 <check_condition+0xe3a>
    162a:	cf c2       	rjmp	.+1438   	; 0x1bca <check_condition+0x12b0>
    162c:	69 31       	cpi	r22, 0x19	; 25
    162e:	71 05       	cpc	r23, r1
    1630:	09 f0       	breq	.+2      	; 0x1634 <check_condition+0xd1a>
    1632:	7c c0       	rjmp	.+248    	; 0x172c <check_condition+0xe12>
    1634:	48 31       	cpi	r20, 0x18	; 24
    1636:	51 05       	cpc	r21, r1
    1638:	09 f4       	brne	.+2      	; 0x163c <check_condition+0xd22>
    163a:	ca c2       	rjmp	.+1428   	; 0x1bd0 <check_condition+0x12b6>
    163c:	46 32       	cpi	r20, 0x26	; 38
    163e:	51 05       	cpc	r21, r1
    1640:	09 f0       	breq	.+2      	; 0x1644 <check_condition+0xd2a>
    1642:	88 c0       	rjmp	.+272    	; 0x1754 <check_condition+0xe3a>
    1644:	c8 c2       	rjmp	.+1424   	; 0x1bd6 <check_condition+0x12bc>
    1646:	6a 31       	cpi	r22, 0x1A	; 26
    1648:	71 05       	cpc	r23, r1
    164a:	09 f0       	breq	.+2      	; 0x164e <check_condition+0xd34>
    164c:	6f c0       	rjmp	.+222    	; 0x172c <check_condition+0xe12>
    164e:	48 31       	cpi	r20, 0x18	; 24
    1650:	51 05       	cpc	r21, r1
    1652:	09 f4       	brne	.+2      	; 0x1656 <check_condition+0xd3c>
    1654:	c3 c2       	rjmp	.+1414   	; 0x1bdc <check_condition+0x12c2>
    1656:	47 32       	cpi	r20, 0x27	; 39
    1658:	51 05       	cpc	r21, r1
    165a:	09 f0       	breq	.+2      	; 0x165e <check_condition+0xd44>
    165c:	7b c0       	rjmp	.+246    	; 0x1754 <check_condition+0xe3a>
    165e:	c1 c2       	rjmp	.+1410   	; 0x1be2 <check_condition+0x12c8>
    1660:	6c 31       	cpi	r22, 0x1C	; 28
    1662:	71 05       	cpc	r23, r1
    1664:	09 f0       	breq	.+2      	; 0x1668 <check_condition+0xd4e>
    1666:	62 c0       	rjmp	.+196    	; 0x172c <check_condition+0xe12>
    1668:	45 2b       	or	r20, r21
    166a:	09 f0       	breq	.+2      	; 0x166e <check_condition+0xd54>
    166c:	73 c0       	rjmp	.+230    	; 0x1754 <check_condition+0xe3a>
    166e:	48 d9       	rcall	.-3440   	; 0x900 <node>
    1670:	20 e0       	ldi	r18, 0x00	; 0
    1672:	30 e0       	ldi	r19, 0x00	; 0
    1674:	f1 c2       	rjmp	.+1506   	; 0x1c58 <check_condition+0x133e>
    1676:	6d 31       	cpi	r22, 0x1D	; 29
    1678:	71 05       	cpc	r23, r1
    167a:	09 f0       	breq	.+2      	; 0x167e <check_condition+0xd64>
    167c:	57 c0       	rjmp	.+174    	; 0x172c <check_condition+0xe12>
    167e:	41 30       	cpi	r20, 0x01	; 1
    1680:	51 05       	cpc	r21, r1
    1682:	09 f0       	breq	.+2      	; 0x1686 <check_condition+0xd6c>
    1684:	67 c0       	rjmp	.+206    	; 0x1754 <check_condition+0xe3a>
    1686:	3c d9       	rcall	.-3464   	; 0x900 <node>
    1688:	20 e0       	ldi	r18, 0x00	; 0
    168a:	30 e0       	ldi	r19, 0x00	; 0
    168c:	e5 c2       	rjmp	.+1482   	; 0x1c58 <check_condition+0x133e>
    168e:	6e 31       	cpi	r22, 0x1E	; 30
    1690:	71 05       	cpc	r23, r1
    1692:	09 f0       	breq	.+2      	; 0x1696 <check_condition+0xd7c>
    1694:	4b c0       	rjmp	.+150    	; 0x172c <check_condition+0xe12>
    1696:	42 30       	cpi	r20, 0x02	; 2
    1698:	51 05       	cpc	r21, r1
    169a:	09 f0       	breq	.+2      	; 0x169e <check_condition+0xd84>
    169c:	5b c0       	rjmp	.+182    	; 0x1754 <check_condition+0xe3a>
    169e:	30 d9       	rcall	.-3488   	; 0x900 <node>
    16a0:	20 e0       	ldi	r18, 0x00	; 0
    16a2:	30 e0       	ldi	r19, 0x00	; 0
    16a4:	d9 c2       	rjmp	.+1458   	; 0x1c58 <check_condition+0x133e>
    16a6:	6f 31       	cpi	r22, 0x1F	; 31
    16a8:	71 05       	cpc	r23, r1
    16aa:	09 f0       	breq	.+2      	; 0x16ae <check_condition+0xd94>
    16ac:	3f c0       	rjmp	.+126    	; 0x172c <check_condition+0xe12>
    16ae:	44 30       	cpi	r20, 0x04	; 4
    16b0:	51 05       	cpc	r21, r1
    16b2:	09 f0       	breq	.+2      	; 0x16b6 <check_condition+0xd9c>
    16b4:	4f c0       	rjmp	.+158    	; 0x1754 <check_condition+0xe3a>
    16b6:	24 d9       	rcall	.-3512   	; 0x900 <node>
    16b8:	20 e0       	ldi	r18, 0x00	; 0
    16ba:	30 e0       	ldi	r19, 0x00	; 0
    16bc:	cd c2       	rjmp	.+1434   	; 0x1c58 <check_condition+0x133e>
    16be:	60 32       	cpi	r22, 0x20	; 32
    16c0:	71 05       	cpc	r23, r1
    16c2:	a1 f5       	brne	.+104    	; 0x172c <check_condition+0xe12>
    16c4:	45 30       	cpi	r20, 0x05	; 5
    16c6:	51 05       	cpc	r21, r1
    16c8:	09 f0       	breq	.+2      	; 0x16cc <check_condition+0xdb2>
    16ca:	44 c0       	rjmp	.+136    	; 0x1754 <check_condition+0xe3a>
    16cc:	19 d9       	rcall	.-3534   	; 0x900 <node>
    16ce:	20 e0       	ldi	r18, 0x00	; 0
    16d0:	30 e0       	ldi	r19, 0x00	; 0
    16d2:	c2 c2       	rjmp	.+1412   	; 0x1c58 <check_condition+0x133e>
    16d4:	61 32       	cpi	r22, 0x21	; 33
    16d6:	71 05       	cpc	r23, r1
    16d8:	49 f5       	brne	.+82     	; 0x172c <check_condition+0xe12>
    16da:	46 30       	cpi	r20, 0x06	; 6
    16dc:	51 05       	cpc	r21, r1
    16de:	d1 f5       	brne	.+116    	; 0x1754 <check_condition+0xe3a>
    16e0:	0f d9       	rcall	.-3554   	; 0x900 <node>
    16e2:	20 e0       	ldi	r18, 0x00	; 0
    16e4:	30 e0       	ldi	r19, 0x00	; 0
    16e6:	b8 c2       	rjmp	.+1392   	; 0x1c58 <check_condition+0x133e>
    16e8:	62 32       	cpi	r22, 0x22	; 34
    16ea:	71 05       	cpc	r23, r1
    16ec:	f9 f4       	brne	.+62     	; 0x172c <check_condition+0xe12>
    16ee:	46 31       	cpi	r20, 0x16	; 22
    16f0:	51 05       	cpc	r21, r1
    16f2:	81 f5       	brne	.+96     	; 0x1754 <check_condition+0xe3a>
    16f4:	79 c2       	rjmp	.+1266   	; 0x1be8 <check_condition+0x12ce>
    16f6:	63 32       	cpi	r22, 0x23	; 35
    16f8:	71 05       	cpc	r23, r1
    16fa:	c1 f4       	brne	.+48     	; 0x172c <check_condition+0xe12>
    16fc:	4f 30       	cpi	r20, 0x0F	; 15
    16fe:	51 05       	cpc	r21, r1
    1700:	49 f5       	brne	.+82     	; 0x1754 <check_condition+0xe3a>
    1702:	fe d8       	rcall	.-3588   	; 0x900 <node>
    1704:	20 e0       	ldi	r18, 0x00	; 0
    1706:	30 e0       	ldi	r19, 0x00	; 0
    1708:	a7 c2       	rjmp	.+1358   	; 0x1c58 <check_condition+0x133e>
    170a:	64 32       	cpi	r22, 0x24	; 36
    170c:	71 05       	cpc	r23, r1
    170e:	71 f4       	brne	.+28     	; 0x172c <check_condition+0xe12>
    1710:	43 31       	cpi	r20, 0x13	; 19
    1712:	51 05       	cpc	r21, r1
    1714:	f9 f4       	brne	.+62     	; 0x1754 <check_condition+0xe3a>
    1716:	f4 d8       	rcall	.-3608   	; 0x900 <node>
    1718:	20 e0       	ldi	r18, 0x00	; 0
    171a:	30 e0       	ldi	r19, 0x00	; 0
    171c:	9d c2       	rjmp	.+1338   	; 0x1c58 <check_condition+0x133e>
    171e:	65 32       	cpi	r22, 0x25	; 37
    1720:	71 05       	cpc	r23, r1
    1722:	21 f4       	brne	.+8      	; 0x172c <check_condition+0xe12>
    1724:	45 31       	cpi	r20, 0x15	; 21
    1726:	51 05       	cpc	r21, r1
    1728:	a9 f4       	brne	.+42     	; 0x1754 <check_condition+0xe3a>
    172a:	61 c2       	rjmp	.+1218   	; 0x1bee <check_condition+0x12d4>
    172c:	66 32       	cpi	r22, 0x26	; 38
    172e:	71 05       	cpc	r23, r1
    1730:	39 f4       	brne	.+14     	; 0x1740 <check_condition+0xe26>
    1732:	49 31       	cpi	r20, 0x19	; 25
    1734:	51 05       	cpc	r21, r1
    1736:	71 f4       	brne	.+28     	; 0x1754 <check_condition+0xe3a>
    1738:	e3 d8       	rcall	.-3642   	; 0x900 <node>
    173a:	20 e0       	ldi	r18, 0x00	; 0
    173c:	30 e0       	ldi	r19, 0x00	; 0
    173e:	8c c2       	rjmp	.+1304   	; 0x1c58 <check_condition+0x133e>
    1740:	67 2b       	or	r22, r23
    1742:	41 f4       	brne	.+16     	; 0x1754 <check_condition+0xe3a>
    1744:	41 15       	cp	r20, r1
    1746:	51 05       	cpc	r21, r1
    1748:	09 f4       	brne	.+2      	; 0x174c <check_condition+0xe32>
    174a:	54 c2       	rjmp	.+1192   	; 0x1bf4 <check_condition+0x12da>
    174c:	4d 30       	cpi	r20, 0x0D	; 13
    174e:	51 05       	cpc	r21, r1
    1750:	09 f4       	brne	.+2      	; 0x1754 <check_condition+0xe3a>
    1752:	53 c2       	rjmp	.+1190   	; 0x1bfa <check_condition+0x12e0>
    1754:	08 95       	ret
    1756:	21 e0       	ldi	r18, 0x01	; 1
    1758:	30 e0       	ldi	r19, 0x00	; 0
    175a:	7e c2       	rjmp	.+1276   	; 0x1c58 <check_condition+0x133e>
    175c:	22 e0       	ldi	r18, 0x02	; 2
    175e:	30 e0       	ldi	r19, 0x00	; 0
    1760:	7b c2       	rjmp	.+1270   	; 0x1c58 <check_condition+0x133e>
    1762:	23 e0       	ldi	r18, 0x03	; 3
    1764:	30 e0       	ldi	r19, 0x00	; 0
    1766:	78 c2       	rjmp	.+1264   	; 0x1c58 <check_condition+0x133e>
    1768:	21 e0       	ldi	r18, 0x01	; 1
    176a:	30 e0       	ldi	r19, 0x00	; 0
    176c:	75 c2       	rjmp	.+1258   	; 0x1c58 <check_condition+0x133e>
    176e:	23 e0       	ldi	r18, 0x03	; 3
    1770:	30 e0       	ldi	r19, 0x00	; 0
    1772:	72 c2       	rjmp	.+1252   	; 0x1c58 <check_condition+0x133e>
    1774:	21 e0       	ldi	r18, 0x01	; 1
    1776:	30 e0       	ldi	r19, 0x00	; 0
    1778:	6f c2       	rjmp	.+1246   	; 0x1c58 <check_condition+0x133e>
    177a:	22 e0       	ldi	r18, 0x02	; 2
    177c:	30 e0       	ldi	r19, 0x00	; 0
    177e:	6c c2       	rjmp	.+1240   	; 0x1c58 <check_condition+0x133e>
    1780:	23 e0       	ldi	r18, 0x03	; 3
    1782:	30 e0       	ldi	r19, 0x00	; 0
    1784:	69 c2       	rjmp	.+1234   	; 0x1c58 <check_condition+0x133e>
    1786:	26 e0       	ldi	r18, 0x06	; 6
    1788:	30 e0       	ldi	r19, 0x00	; 0
    178a:	66 c2       	rjmp	.+1228   	; 0x1c58 <check_condition+0x133e>
    178c:	21 e0       	ldi	r18, 0x01	; 1
    178e:	30 e0       	ldi	r19, 0x00	; 0
    1790:	63 c2       	rjmp	.+1222   	; 0x1c58 <check_condition+0x133e>
    1792:	23 e0       	ldi	r18, 0x03	; 3
    1794:	30 e0       	ldi	r19, 0x00	; 0
    1796:	60 c2       	rjmp	.+1216   	; 0x1c58 <check_condition+0x133e>
    1798:	21 e0       	ldi	r18, 0x01	; 1
    179a:	30 e0       	ldi	r19, 0x00	; 0
    179c:	5d c2       	rjmp	.+1210   	; 0x1c58 <check_condition+0x133e>
    179e:	22 e0       	ldi	r18, 0x02	; 2
    17a0:	30 e0       	ldi	r19, 0x00	; 0
    17a2:	5a c2       	rjmp	.+1204   	; 0x1c58 <check_condition+0x133e>
    17a4:	21 e0       	ldi	r18, 0x01	; 1
    17a6:	30 e0       	ldi	r19, 0x00	; 0
    17a8:	57 c2       	rjmp	.+1198   	; 0x1c58 <check_condition+0x133e>
    17aa:	21 e0       	ldi	r18, 0x01	; 1
    17ac:	30 e0       	ldi	r19, 0x00	; 0
    17ae:	54 c2       	rjmp	.+1192   	; 0x1c58 <check_condition+0x133e>
    17b0:	22 e0       	ldi	r18, 0x02	; 2
    17b2:	30 e0       	ldi	r19, 0x00	; 0
    17b4:	51 c2       	rjmp	.+1186   	; 0x1c58 <check_condition+0x133e>
    17b6:	23 e0       	ldi	r18, 0x03	; 3
    17b8:	30 e0       	ldi	r19, 0x00	; 0
    17ba:	4e c2       	rjmp	.+1180   	; 0x1c58 <check_condition+0x133e>
    17bc:	21 e0       	ldi	r18, 0x01	; 1
    17be:	30 e0       	ldi	r19, 0x00	; 0
    17c0:	4b c2       	rjmp	.+1174   	; 0x1c58 <check_condition+0x133e>
    17c2:	21 e0       	ldi	r18, 0x01	; 1
    17c4:	30 e0       	ldi	r19, 0x00	; 0
    17c6:	48 c2       	rjmp	.+1168   	; 0x1c58 <check_condition+0x133e>
    17c8:	23 e0       	ldi	r18, 0x03	; 3
    17ca:	30 e0       	ldi	r19, 0x00	; 0
    17cc:	45 c2       	rjmp	.+1162   	; 0x1c58 <check_condition+0x133e>
    17ce:	21 e0       	ldi	r18, 0x01	; 1
    17d0:	30 e0       	ldi	r19, 0x00	; 0
    17d2:	42 c2       	rjmp	.+1156   	; 0x1c58 <check_condition+0x133e>
    17d4:	22 e0       	ldi	r18, 0x02	; 2
    17d6:	30 e0       	ldi	r19, 0x00	; 0
    17d8:	3f c2       	rjmp	.+1150   	; 0x1c58 <check_condition+0x133e>
    17da:	26 e0       	ldi	r18, 0x06	; 6
    17dc:	30 e0       	ldi	r19, 0x00	; 0
    17de:	3c c2       	rjmp	.+1144   	; 0x1c58 <check_condition+0x133e>
    17e0:	21 e0       	ldi	r18, 0x01	; 1
    17e2:	30 e0       	ldi	r19, 0x00	; 0
    17e4:	39 c2       	rjmp	.+1138   	; 0x1c58 <check_condition+0x133e>
    17e6:	23 e0       	ldi	r18, 0x03	; 3
    17e8:	30 e0       	ldi	r19, 0x00	; 0
    17ea:	36 c2       	rjmp	.+1132   	; 0x1c58 <check_condition+0x133e>
    17ec:	22 e0       	ldi	r18, 0x02	; 2
    17ee:	30 e0       	ldi	r19, 0x00	; 0
    17f0:	33 c2       	rjmp	.+1126   	; 0x1c58 <check_condition+0x133e>
    17f2:	22 e0       	ldi	r18, 0x02	; 2
    17f4:	30 e0       	ldi	r19, 0x00	; 0
    17f6:	30 c2       	rjmp	.+1120   	; 0x1c58 <check_condition+0x133e>
    17f8:	21 e0       	ldi	r18, 0x01	; 1
    17fa:	30 e0       	ldi	r19, 0x00	; 0
    17fc:	2d c2       	rjmp	.+1114   	; 0x1c58 <check_condition+0x133e>
    17fe:	23 e0       	ldi	r18, 0x03	; 3
    1800:	30 e0       	ldi	r19, 0x00	; 0
    1802:	2a c2       	rjmp	.+1108   	; 0x1c58 <check_condition+0x133e>
    1804:	21 e0       	ldi	r18, 0x01	; 1
    1806:	30 e0       	ldi	r19, 0x00	; 0
    1808:	27 c2       	rjmp	.+1102   	; 0x1c58 <check_condition+0x133e>
    180a:	25 e0       	ldi	r18, 0x05	; 5
    180c:	30 e0       	ldi	r19, 0x00	; 0
    180e:	24 c2       	rjmp	.+1096   	; 0x1c58 <check_condition+0x133e>
    1810:	23 e0       	ldi	r18, 0x03	; 3
    1812:	30 e0       	ldi	r19, 0x00	; 0
    1814:	21 c2       	rjmp	.+1090   	; 0x1c58 <check_condition+0x133e>
    1816:	22 e0       	ldi	r18, 0x02	; 2
    1818:	30 e0       	ldi	r19, 0x00	; 0
    181a:	1e c2       	rjmp	.+1084   	; 0x1c58 <check_condition+0x133e>
    181c:	23 e0       	ldi	r18, 0x03	; 3
    181e:	30 e0       	ldi	r19, 0x00	; 0
    1820:	1b c2       	rjmp	.+1078   	; 0x1c58 <check_condition+0x133e>
    1822:	22 e0       	ldi	r18, 0x02	; 2
    1824:	30 e0       	ldi	r19, 0x00	; 0
    1826:	18 c2       	rjmp	.+1072   	; 0x1c58 <check_condition+0x133e>
    1828:	21 e0       	ldi	r18, 0x01	; 1
    182a:	30 e0       	ldi	r19, 0x00	; 0
    182c:	15 c2       	rjmp	.+1066   	; 0x1c58 <check_condition+0x133e>
    182e:	22 e0       	ldi	r18, 0x02	; 2
    1830:	30 e0       	ldi	r19, 0x00	; 0
    1832:	12 c2       	rjmp	.+1060   	; 0x1c58 <check_condition+0x133e>
    1834:	23 e0       	ldi	r18, 0x03	; 3
    1836:	30 e0       	ldi	r19, 0x00	; 0
    1838:	0f c2       	rjmp	.+1054   	; 0x1c58 <check_condition+0x133e>
    183a:	2e e0       	ldi	r18, 0x0E	; 14
    183c:	30 e0       	ldi	r19, 0x00	; 0
    183e:	0c c2       	rjmp	.+1048   	; 0x1c58 <check_condition+0x133e>
    1840:	23 e0       	ldi	r18, 0x03	; 3
    1842:	30 e0       	ldi	r19, 0x00	; 0
    1844:	09 c2       	rjmp	.+1042   	; 0x1c58 <check_condition+0x133e>
    1846:	23 e0       	ldi	r18, 0x03	; 3
    1848:	30 e0       	ldi	r19, 0x00	; 0
    184a:	06 c2       	rjmp	.+1036   	; 0x1c58 <check_condition+0x133e>
    184c:	22 e0       	ldi	r18, 0x02	; 2
    184e:	30 e0       	ldi	r19, 0x00	; 0
    1850:	03 c2       	rjmp	.+1030   	; 0x1c58 <check_condition+0x133e>
    1852:	27 e0       	ldi	r18, 0x07	; 7
    1854:	30 e0       	ldi	r19, 0x00	; 0
    1856:	00 c2       	rjmp	.+1024   	; 0x1c58 <check_condition+0x133e>
    1858:	22 e0       	ldi	r18, 0x02	; 2
    185a:	30 e0       	ldi	r19, 0x00	; 0
    185c:	fd c1       	rjmp	.+1018   	; 0x1c58 <check_condition+0x133e>
    185e:	23 e0       	ldi	r18, 0x03	; 3
    1860:	30 e0       	ldi	r19, 0x00	; 0
    1862:	fa c1       	rjmp	.+1012   	; 0x1c58 <check_condition+0x133e>
    1864:	22 e0       	ldi	r18, 0x02	; 2
    1866:	30 e0       	ldi	r19, 0x00	; 0
    1868:	f7 c1       	rjmp	.+1006   	; 0x1c58 <check_condition+0x133e>
    186a:	23 e0       	ldi	r18, 0x03	; 3
    186c:	30 e0       	ldi	r19, 0x00	; 0
    186e:	f4 c1       	rjmp	.+1000   	; 0x1c58 <check_condition+0x133e>
    1870:	23 e0       	ldi	r18, 0x03	; 3
    1872:	30 e0       	ldi	r19, 0x00	; 0
    1874:	f1 c1       	rjmp	.+994    	; 0x1c58 <check_condition+0x133e>
    1876:	23 e0       	ldi	r18, 0x03	; 3
    1878:	30 e0       	ldi	r19, 0x00	; 0
    187a:	ee c1       	rjmp	.+988    	; 0x1c58 <check_condition+0x133e>
    187c:	22 e0       	ldi	r18, 0x02	; 2
    187e:	30 e0       	ldi	r19, 0x00	; 0
    1880:	eb c1       	rjmp	.+982    	; 0x1c58 <check_condition+0x133e>
    1882:	22 e0       	ldi	r18, 0x02	; 2
    1884:	30 e0       	ldi	r19, 0x00	; 0
    1886:	e8 c1       	rjmp	.+976    	; 0x1c58 <check_condition+0x133e>
    1888:	22 e0       	ldi	r18, 0x02	; 2
    188a:	30 e0       	ldi	r19, 0x00	; 0
    188c:	e5 c1       	rjmp	.+970    	; 0x1c58 <check_condition+0x133e>
    188e:	23 e0       	ldi	r18, 0x03	; 3
    1890:	30 e0       	ldi	r19, 0x00	; 0
    1892:	e2 c1       	rjmp	.+964    	; 0x1c58 <check_condition+0x133e>
    1894:	21 e0       	ldi	r18, 0x01	; 1
    1896:	30 e0       	ldi	r19, 0x00	; 0
    1898:	df c1       	rjmp	.+958    	; 0x1c58 <check_condition+0x133e>
    189a:	22 e0       	ldi	r18, 0x02	; 2
    189c:	30 e0       	ldi	r19, 0x00	; 0
    189e:	dc c1       	rjmp	.+952    	; 0x1c58 <check_condition+0x133e>
    18a0:	21 e0       	ldi	r18, 0x01	; 1
    18a2:	30 e0       	ldi	r19, 0x00	; 0
    18a4:	d9 c1       	rjmp	.+946    	; 0x1c58 <check_condition+0x133e>
    18a6:	22 e0       	ldi	r18, 0x02	; 2
    18a8:	30 e0       	ldi	r19, 0x00	; 0
    18aa:	d6 c1       	rjmp	.+940    	; 0x1c58 <check_condition+0x133e>
    18ac:	21 e0       	ldi	r18, 0x01	; 1
    18ae:	30 e0       	ldi	r19, 0x00	; 0
    18b0:	d3 c1       	rjmp	.+934    	; 0x1c58 <check_condition+0x133e>
    18b2:	22 e0       	ldi	r18, 0x02	; 2
    18b4:	30 e0       	ldi	r19, 0x00	; 0
    18b6:	d0 c1       	rjmp	.+928    	; 0x1c58 <check_condition+0x133e>
    18b8:	22 e0       	ldi	r18, 0x02	; 2
    18ba:	30 e0       	ldi	r19, 0x00	; 0
    18bc:	cd c1       	rjmp	.+922    	; 0x1c58 <check_condition+0x133e>
    18be:	23 e0       	ldi	r18, 0x03	; 3
    18c0:	30 e0       	ldi	r19, 0x00	; 0
    18c2:	ca c1       	rjmp	.+916    	; 0x1c58 <check_condition+0x133e>
    18c4:	22 e0       	ldi	r18, 0x02	; 2
    18c6:	30 e0       	ldi	r19, 0x00	; 0
    18c8:	c7 c1       	rjmp	.+910    	; 0x1c58 <check_condition+0x133e>
    18ca:	27 e0       	ldi	r18, 0x07	; 7
    18cc:	30 e0       	ldi	r19, 0x00	; 0
    18ce:	c4 c1       	rjmp	.+904    	; 0x1c58 <check_condition+0x133e>
    18d0:	23 e0       	ldi	r18, 0x03	; 3
    18d2:	30 e0       	ldi	r19, 0x00	; 0
    18d4:	c1 c1       	rjmp	.+898    	; 0x1c58 <check_condition+0x133e>
    18d6:	21 e0       	ldi	r18, 0x01	; 1
    18d8:	30 e0       	ldi	r19, 0x00	; 0
    18da:	be c1       	rjmp	.+892    	; 0x1c58 <check_condition+0x133e>
    18dc:	22 e0       	ldi	r18, 0x02	; 2
    18de:	30 e0       	ldi	r19, 0x00	; 0
    18e0:	bb c1       	rjmp	.+886    	; 0x1c58 <check_condition+0x133e>
    18e2:	23 e0       	ldi	r18, 0x03	; 3
    18e4:	30 e0       	ldi	r19, 0x00	; 0
    18e6:	b8 c1       	rjmp	.+880    	; 0x1c58 <check_condition+0x133e>
    18e8:	23 e0       	ldi	r18, 0x03	; 3
    18ea:	30 e0       	ldi	r19, 0x00	; 0
    18ec:	b5 c1       	rjmp	.+874    	; 0x1c58 <check_condition+0x133e>
    18ee:	21 e0       	ldi	r18, 0x01	; 1
    18f0:	30 e0       	ldi	r19, 0x00	; 0
    18f2:	b2 c1       	rjmp	.+868    	; 0x1c58 <check_condition+0x133e>
    18f4:	22 e0       	ldi	r18, 0x02	; 2
    18f6:	30 e0       	ldi	r19, 0x00	; 0
    18f8:	af c1       	rjmp	.+862    	; 0x1c58 <check_condition+0x133e>
    18fa:	21 e0       	ldi	r18, 0x01	; 1
    18fc:	30 e0       	ldi	r19, 0x00	; 0
    18fe:	ac c1       	rjmp	.+856    	; 0x1c58 <check_condition+0x133e>
    1900:	27 e0       	ldi	r18, 0x07	; 7
    1902:	30 e0       	ldi	r19, 0x00	; 0
    1904:	a9 c1       	rjmp	.+850    	; 0x1c58 <check_condition+0x133e>
    1906:	22 e0       	ldi	r18, 0x02	; 2
    1908:	30 e0       	ldi	r19, 0x00	; 0
    190a:	a6 c1       	rjmp	.+844    	; 0x1c58 <check_condition+0x133e>
    190c:	23 e0       	ldi	r18, 0x03	; 3
    190e:	30 e0       	ldi	r19, 0x00	; 0
    1910:	a3 c1       	rjmp	.+838    	; 0x1c58 <check_condition+0x133e>
    1912:	23 e0       	ldi	r18, 0x03	; 3
    1914:	30 e0       	ldi	r19, 0x00	; 0
    1916:	a0 c1       	rjmp	.+832    	; 0x1c58 <check_condition+0x133e>
    1918:	22 e0       	ldi	r18, 0x02	; 2
    191a:	30 e0       	ldi	r19, 0x00	; 0
    191c:	9d c1       	rjmp	.+826    	; 0x1c58 <check_condition+0x133e>
    191e:	23 e0       	ldi	r18, 0x03	; 3
    1920:	30 e0       	ldi	r19, 0x00	; 0
    1922:	9a c1       	rjmp	.+820    	; 0x1c58 <check_condition+0x133e>
    1924:	21 e0       	ldi	r18, 0x01	; 1
    1926:	30 e0       	ldi	r19, 0x00	; 0
    1928:	97 c1       	rjmp	.+814    	; 0x1c58 <check_condition+0x133e>
    192a:	23 e0       	ldi	r18, 0x03	; 3
    192c:	30 e0       	ldi	r19, 0x00	; 0
    192e:	94 c1       	rjmp	.+808    	; 0x1c58 <check_condition+0x133e>
    1930:	2b e0       	ldi	r18, 0x0B	; 11
    1932:	30 e0       	ldi	r19, 0x00	; 0
    1934:	91 c1       	rjmp	.+802    	; 0x1c58 <check_condition+0x133e>
    1936:	23 e0       	ldi	r18, 0x03	; 3
    1938:	30 e0       	ldi	r19, 0x00	; 0
    193a:	8e c1       	rjmp	.+796    	; 0x1c58 <check_condition+0x133e>
    193c:	23 e0       	ldi	r18, 0x03	; 3
    193e:	30 e0       	ldi	r19, 0x00	; 0
    1940:	8b c1       	rjmp	.+790    	; 0x1c58 <check_condition+0x133e>
    1942:	2a e0       	ldi	r18, 0x0A	; 10
    1944:	30 e0       	ldi	r19, 0x00	; 0
    1946:	88 c1       	rjmp	.+784    	; 0x1c58 <check_condition+0x133e>
    1948:	21 e0       	ldi	r18, 0x01	; 1
    194a:	30 e0       	ldi	r19, 0x00	; 0
    194c:	85 c1       	rjmp	.+778    	; 0x1c58 <check_condition+0x133e>
    194e:	21 e0       	ldi	r18, 0x01	; 1
    1950:	30 e0       	ldi	r19, 0x00	; 0
    1952:	82 c1       	rjmp	.+772    	; 0x1c58 <check_condition+0x133e>
    1954:	22 e0       	ldi	r18, 0x02	; 2
    1956:	30 e0       	ldi	r19, 0x00	; 0
    1958:	7f c1       	rjmp	.+766    	; 0x1c58 <check_condition+0x133e>
    195a:	2f e0       	ldi	r18, 0x0F	; 15
    195c:	30 e0       	ldi	r19, 0x00	; 0
    195e:	7c c1       	rjmp	.+760    	; 0x1c58 <check_condition+0x133e>
    1960:	22 e0       	ldi	r18, 0x02	; 2
    1962:	30 e0       	ldi	r19, 0x00	; 0
    1964:	79 c1       	rjmp	.+754    	; 0x1c58 <check_condition+0x133e>
    1966:	23 e0       	ldi	r18, 0x03	; 3
    1968:	30 e0       	ldi	r19, 0x00	; 0
    196a:	76 c1       	rjmp	.+748    	; 0x1c58 <check_condition+0x133e>
    196c:	22 e0       	ldi	r18, 0x02	; 2
    196e:	30 e0       	ldi	r19, 0x00	; 0
    1970:	73 c1       	rjmp	.+742    	; 0x1c58 <check_condition+0x133e>
    1972:	22 e0       	ldi	r18, 0x02	; 2
    1974:	30 e0       	ldi	r19, 0x00	; 0
    1976:	70 c1       	rjmp	.+736    	; 0x1c58 <check_condition+0x133e>
    1978:	21 e0       	ldi	r18, 0x01	; 1
    197a:	30 e0       	ldi	r19, 0x00	; 0
    197c:	6d c1       	rjmp	.+730    	; 0x1c58 <check_condition+0x133e>
    197e:	23 e0       	ldi	r18, 0x03	; 3
    1980:	30 e0       	ldi	r19, 0x00	; 0
    1982:	6a c1       	rjmp	.+724    	; 0x1c58 <check_condition+0x133e>
    1984:	21 e0       	ldi	r18, 0x01	; 1
    1986:	30 e0       	ldi	r19, 0x00	; 0
    1988:	67 c1       	rjmp	.+718    	; 0x1c58 <check_condition+0x133e>
    198a:	27 e0       	ldi	r18, 0x07	; 7
    198c:	30 e0       	ldi	r19, 0x00	; 0
    198e:	64 c1       	rjmp	.+712    	; 0x1c58 <check_condition+0x133e>
    1990:	23 e0       	ldi	r18, 0x03	; 3
    1992:	30 e0       	ldi	r19, 0x00	; 0
    1994:	61 c1       	rjmp	.+706    	; 0x1c58 <check_condition+0x133e>
    1996:	21 e0       	ldi	r18, 0x01	; 1
    1998:	30 e0       	ldi	r19, 0x00	; 0
    199a:	5e c1       	rjmp	.+700    	; 0x1c58 <check_condition+0x133e>
    199c:	22 e0       	ldi	r18, 0x02	; 2
    199e:	30 e0       	ldi	r19, 0x00	; 0
    19a0:	5b c1       	rjmp	.+694    	; 0x1c58 <check_condition+0x133e>
    19a2:	23 e0       	ldi	r18, 0x03	; 3
    19a4:	30 e0       	ldi	r19, 0x00	; 0
    19a6:	58 c1       	rjmp	.+688    	; 0x1c58 <check_condition+0x133e>
    19a8:	22 e0       	ldi	r18, 0x02	; 2
    19aa:	30 e0       	ldi	r19, 0x00	; 0
    19ac:	55 c1       	rjmp	.+682    	; 0x1c58 <check_condition+0x133e>
    19ae:	21 e1       	ldi	r18, 0x11	; 17
    19b0:	30 e0       	ldi	r19, 0x00	; 0
    19b2:	52 c1       	rjmp	.+676    	; 0x1c58 <check_condition+0x133e>
    19b4:	20 e1       	ldi	r18, 0x10	; 16
    19b6:	30 e0       	ldi	r19, 0x00	; 0
    19b8:	4f c1       	rjmp	.+670    	; 0x1c58 <check_condition+0x133e>
    19ba:	21 e0       	ldi	r18, 0x01	; 1
    19bc:	30 e0       	ldi	r19, 0x00	; 0
    19be:	4c c1       	rjmp	.+664    	; 0x1c58 <check_condition+0x133e>
    19c0:	27 e0       	ldi	r18, 0x07	; 7
    19c2:	30 e0       	ldi	r19, 0x00	; 0
    19c4:	49 c1       	rjmp	.+658    	; 0x1c58 <check_condition+0x133e>
    19c6:	27 e0       	ldi	r18, 0x07	; 7
    19c8:	30 e0       	ldi	r19, 0x00	; 0
    19ca:	46 c1       	rjmp	.+652    	; 0x1c58 <check_condition+0x133e>
    19cc:	22 e1       	ldi	r18, 0x12	; 18
    19ce:	30 e0       	ldi	r19, 0x00	; 0
    19d0:	43 c1       	rjmp	.+646    	; 0x1c58 <check_condition+0x133e>
    19d2:	2b e0       	ldi	r18, 0x0B	; 11
    19d4:	30 e0       	ldi	r19, 0x00	; 0
    19d6:	40 c1       	rjmp	.+640    	; 0x1c58 <check_condition+0x133e>
    19d8:	21 e0       	ldi	r18, 0x01	; 1
    19da:	30 e0       	ldi	r19, 0x00	; 0
    19dc:	3d c1       	rjmp	.+634    	; 0x1c58 <check_condition+0x133e>
    19de:	23 e0       	ldi	r18, 0x03	; 3
    19e0:	30 e0       	ldi	r19, 0x00	; 0
    19e2:	3a c1       	rjmp	.+628    	; 0x1c58 <check_condition+0x133e>
    19e4:	22 e0       	ldi	r18, 0x02	; 2
    19e6:	30 e0       	ldi	r19, 0x00	; 0
    19e8:	37 c1       	rjmp	.+622    	; 0x1c58 <check_condition+0x133e>
    19ea:	21 e0       	ldi	r18, 0x01	; 1
    19ec:	30 e0       	ldi	r19, 0x00	; 0
    19ee:	34 c1       	rjmp	.+616    	; 0x1c58 <check_condition+0x133e>
    19f0:	29 e0       	ldi	r18, 0x09	; 9
    19f2:	30 e0       	ldi	r19, 0x00	; 0
    19f4:	31 c1       	rjmp	.+610    	; 0x1c58 <check_condition+0x133e>
    19f6:	2d e0       	ldi	r18, 0x0D	; 13
    19f8:	30 e0       	ldi	r19, 0x00	; 0
    19fa:	2e c1       	rjmp	.+604    	; 0x1c58 <check_condition+0x133e>
    19fc:	2c e0       	ldi	r18, 0x0C	; 12
    19fe:	30 e0       	ldi	r19, 0x00	; 0
    1a00:	2b c1       	rjmp	.+598    	; 0x1c58 <check_condition+0x133e>
    1a02:	2d e0       	ldi	r18, 0x0D	; 13
    1a04:	30 e0       	ldi	r19, 0x00	; 0
    1a06:	28 c1       	rjmp	.+592    	; 0x1c58 <check_condition+0x133e>
    1a08:	29 e0       	ldi	r18, 0x09	; 9
    1a0a:	30 e0       	ldi	r19, 0x00	; 0
    1a0c:	25 c1       	rjmp	.+586    	; 0x1c58 <check_condition+0x133e>
    1a0e:	2d e0       	ldi	r18, 0x0D	; 13
    1a10:	30 e0       	ldi	r19, 0x00	; 0
    1a12:	22 c1       	rjmp	.+580    	; 0x1c58 <check_condition+0x133e>
    1a14:	2c e0       	ldi	r18, 0x0C	; 12
    1a16:	30 e0       	ldi	r19, 0x00	; 0
    1a18:	1f c1       	rjmp	.+574    	; 0x1c58 <check_condition+0x133e>
    1a1a:	2d e0       	ldi	r18, 0x0D	; 13
    1a1c:	30 e0       	ldi	r19, 0x00	; 0
    1a1e:	1c c1       	rjmp	.+568    	; 0x1c58 <check_condition+0x133e>
    1a20:	2c e0       	ldi	r18, 0x0C	; 12
    1a22:	30 e0       	ldi	r19, 0x00	; 0
    1a24:	19 c1       	rjmp	.+562    	; 0x1c58 <check_condition+0x133e>
    1a26:	2d e0       	ldi	r18, 0x0D	; 13
    1a28:	30 e0       	ldi	r19, 0x00	; 0
    1a2a:	16 c1       	rjmp	.+556    	; 0x1c58 <check_condition+0x133e>
    1a2c:	2c e0       	ldi	r18, 0x0C	; 12
    1a2e:	30 e0       	ldi	r19, 0x00	; 0
    1a30:	13 c1       	rjmp	.+550    	; 0x1c58 <check_condition+0x133e>
    1a32:	29 e0       	ldi	r18, 0x09	; 9
    1a34:	30 e0       	ldi	r19, 0x00	; 0
    1a36:	10 c1       	rjmp	.+544    	; 0x1c58 <check_condition+0x133e>
    1a38:	2c e0       	ldi	r18, 0x0C	; 12
    1a3a:	30 e0       	ldi	r19, 0x00	; 0
    1a3c:	0d c1       	rjmp	.+538    	; 0x1c58 <check_condition+0x133e>
    1a3e:	29 e0       	ldi	r18, 0x09	; 9
    1a40:	30 e0       	ldi	r19, 0x00	; 0
    1a42:	0a c1       	rjmp	.+532    	; 0x1c58 <check_condition+0x133e>
    1a44:	21 e0       	ldi	r18, 0x01	; 1
    1a46:	30 e0       	ldi	r19, 0x00	; 0
    1a48:	07 c1       	rjmp	.+526    	; 0x1c58 <check_condition+0x133e>
    1a4a:	2c e0       	ldi	r18, 0x0C	; 12
    1a4c:	30 e0       	ldi	r19, 0x00	; 0
    1a4e:	04 c1       	rjmp	.+520    	; 0x1c58 <check_condition+0x133e>
    1a50:	22 e0       	ldi	r18, 0x02	; 2
    1a52:	30 e0       	ldi	r19, 0x00	; 0
    1a54:	01 c1       	rjmp	.+514    	; 0x1c58 <check_condition+0x133e>
    1a56:	23 e0       	ldi	r18, 0x03	; 3
    1a58:	30 e0       	ldi	r19, 0x00	; 0
    1a5a:	fe c0       	rjmp	.+508    	; 0x1c58 <check_condition+0x133e>
    1a5c:	2d e0       	ldi	r18, 0x0D	; 13
    1a5e:	30 e0       	ldi	r19, 0x00	; 0
    1a60:	fb c0       	rjmp	.+502    	; 0x1c58 <check_condition+0x133e>
    1a62:	21 e0       	ldi	r18, 0x01	; 1
    1a64:	30 e0       	ldi	r19, 0x00	; 0
    1a66:	f8 c0       	rjmp	.+496    	; 0x1c58 <check_condition+0x133e>
    1a68:	29 e0       	ldi	r18, 0x09	; 9
    1a6a:	30 e0       	ldi	r19, 0x00	; 0
    1a6c:	f5 c0       	rjmp	.+490    	; 0x1c58 <check_condition+0x133e>
    1a6e:	29 e0       	ldi	r18, 0x09	; 9
    1a70:	30 e0       	ldi	r19, 0x00	; 0
    1a72:	f2 c0       	rjmp	.+484    	; 0x1c58 <check_condition+0x133e>
    1a74:	21 e0       	ldi	r18, 0x01	; 1
    1a76:	30 e0       	ldi	r19, 0x00	; 0
    1a78:	ef c0       	rjmp	.+478    	; 0x1c58 <check_condition+0x133e>
    1a7a:	21 e0       	ldi	r18, 0x01	; 1
    1a7c:	30 e0       	ldi	r19, 0x00	; 0
    1a7e:	ec c0       	rjmp	.+472    	; 0x1c58 <check_condition+0x133e>
    1a80:	21 e0       	ldi	r18, 0x01	; 1
    1a82:	30 e0       	ldi	r19, 0x00	; 0
    1a84:	e9 c0       	rjmp	.+466    	; 0x1c58 <check_condition+0x133e>
    1a86:	21 e0       	ldi	r18, 0x01	; 1
    1a88:	30 e0       	ldi	r19, 0x00	; 0
    1a8a:	e6 c0       	rjmp	.+460    	; 0x1c58 <check_condition+0x133e>
    1a8c:	21 e0       	ldi	r18, 0x01	; 1
    1a8e:	30 e0       	ldi	r19, 0x00	; 0
    1a90:	e3 c0       	rjmp	.+454    	; 0x1c58 <check_condition+0x133e>
    1a92:	21 e0       	ldi	r18, 0x01	; 1
    1a94:	30 e0       	ldi	r19, 0x00	; 0
    1a96:	e0 c0       	rjmp	.+448    	; 0x1c58 <check_condition+0x133e>
    1a98:	21 e0       	ldi	r18, 0x01	; 1
    1a9a:	30 e0       	ldi	r19, 0x00	; 0
    1a9c:	dd c0       	rjmp	.+442    	; 0x1c58 <check_condition+0x133e>
    1a9e:	21 e0       	ldi	r18, 0x01	; 1
    1aa0:	30 e0       	ldi	r19, 0x00	; 0
    1aa2:	da c0       	rjmp	.+436    	; 0x1c58 <check_condition+0x133e>
    1aa4:	21 e0       	ldi	r18, 0x01	; 1
    1aa6:	30 e0       	ldi	r19, 0x00	; 0
    1aa8:	d7 c0       	rjmp	.+430    	; 0x1c58 <check_condition+0x133e>
    1aaa:	21 e0       	ldi	r18, 0x01	; 1
    1aac:	30 e0       	ldi	r19, 0x00	; 0
    1aae:	d4 c0       	rjmp	.+424    	; 0x1c58 <check_condition+0x133e>
    1ab0:	21 e0       	ldi	r18, 0x01	; 1
    1ab2:	30 e0       	ldi	r19, 0x00	; 0
    1ab4:	d1 c0       	rjmp	.+418    	; 0x1c58 <check_condition+0x133e>
    1ab6:	21 e0       	ldi	r18, 0x01	; 1
    1ab8:	30 e0       	ldi	r19, 0x00	; 0
    1aba:	ce c0       	rjmp	.+412    	; 0x1c58 <check_condition+0x133e>
    1abc:	21 e0       	ldi	r18, 0x01	; 1
    1abe:	30 e0       	ldi	r19, 0x00	; 0
    1ac0:	cb c0       	rjmp	.+406    	; 0x1c58 <check_condition+0x133e>
    1ac2:	27 e0       	ldi	r18, 0x07	; 7
    1ac4:	30 e0       	ldi	r19, 0x00	; 0
    1ac6:	c8 c0       	rjmp	.+400    	; 0x1c58 <check_condition+0x133e>
    1ac8:	21 e0       	ldi	r18, 0x01	; 1
    1aca:	30 e0       	ldi	r19, 0x00	; 0
    1acc:	c5 c0       	rjmp	.+394    	; 0x1c58 <check_condition+0x133e>
    1ace:	21 e0       	ldi	r18, 0x01	; 1
    1ad0:	30 e0       	ldi	r19, 0x00	; 0
    1ad2:	c2 c0       	rjmp	.+388    	; 0x1c58 <check_condition+0x133e>
    1ad4:	21 e0       	ldi	r18, 0x01	; 1
    1ad6:	30 e0       	ldi	r19, 0x00	; 0
    1ad8:	bf c0       	rjmp	.+382    	; 0x1c58 <check_condition+0x133e>
    1ada:	21 e0       	ldi	r18, 0x01	; 1
    1adc:	30 e0       	ldi	r19, 0x00	; 0
    1ade:	bc c0       	rjmp	.+376    	; 0x1c58 <check_condition+0x133e>
    1ae0:	21 e0       	ldi	r18, 0x01	; 1
    1ae2:	30 e0       	ldi	r19, 0x00	; 0
    1ae4:	b9 c0       	rjmp	.+370    	; 0x1c58 <check_condition+0x133e>
    1ae6:	21 e0       	ldi	r18, 0x01	; 1
    1ae8:	30 e0       	ldi	r19, 0x00	; 0
    1aea:	b6 c0       	rjmp	.+364    	; 0x1c58 <check_condition+0x133e>
    1aec:	21 e0       	ldi	r18, 0x01	; 1
    1aee:	30 e0       	ldi	r19, 0x00	; 0
    1af0:	b3 c0       	rjmp	.+358    	; 0x1c58 <check_condition+0x133e>
    1af2:	21 e0       	ldi	r18, 0x01	; 1
    1af4:	30 e0       	ldi	r19, 0x00	; 0
    1af6:	b0 c0       	rjmp	.+352    	; 0x1c58 <check_condition+0x133e>
    1af8:	21 e0       	ldi	r18, 0x01	; 1
    1afa:	30 e0       	ldi	r19, 0x00	; 0
    1afc:	ad c0       	rjmp	.+346    	; 0x1c58 <check_condition+0x133e>
    1afe:	21 e0       	ldi	r18, 0x01	; 1
    1b00:	30 e0       	ldi	r19, 0x00	; 0
    1b02:	aa c0       	rjmp	.+340    	; 0x1c58 <check_condition+0x133e>
    1b04:	21 e0       	ldi	r18, 0x01	; 1
    1b06:	30 e0       	ldi	r19, 0x00	; 0
    1b08:	a7 c0       	rjmp	.+334    	; 0x1c58 <check_condition+0x133e>
    1b0a:	21 e0       	ldi	r18, 0x01	; 1
    1b0c:	30 e0       	ldi	r19, 0x00	; 0
    1b0e:	a4 c0       	rjmp	.+328    	; 0x1c58 <check_condition+0x133e>
    1b10:	21 e0       	ldi	r18, 0x01	; 1
    1b12:	30 e0       	ldi	r19, 0x00	; 0
    1b14:	a1 c0       	rjmp	.+322    	; 0x1c58 <check_condition+0x133e>
    1b16:	21 e0       	ldi	r18, 0x01	; 1
    1b18:	30 e0       	ldi	r19, 0x00	; 0
    1b1a:	9e c0       	rjmp	.+316    	; 0x1c58 <check_condition+0x133e>
    1b1c:	21 e0       	ldi	r18, 0x01	; 1
    1b1e:	30 e0       	ldi	r19, 0x00	; 0
    1b20:	9b c0       	rjmp	.+310    	; 0x1c58 <check_condition+0x133e>
    1b22:	21 e0       	ldi	r18, 0x01	; 1
    1b24:	30 e0       	ldi	r19, 0x00	; 0
    1b26:	98 c0       	rjmp	.+304    	; 0x1c58 <check_condition+0x133e>
    1b28:	21 e0       	ldi	r18, 0x01	; 1
    1b2a:	30 e0       	ldi	r19, 0x00	; 0
    1b2c:	95 c0       	rjmp	.+298    	; 0x1c58 <check_condition+0x133e>
    1b2e:	21 e0       	ldi	r18, 0x01	; 1
    1b30:	30 e0       	ldi	r19, 0x00	; 0
    1b32:	92 c0       	rjmp	.+292    	; 0x1c58 <check_condition+0x133e>
    1b34:	21 e0       	ldi	r18, 0x01	; 1
    1b36:	30 e0       	ldi	r19, 0x00	; 0
    1b38:	8f c0       	rjmp	.+286    	; 0x1c58 <check_condition+0x133e>
    1b3a:	21 e0       	ldi	r18, 0x01	; 1
    1b3c:	30 e0       	ldi	r19, 0x00	; 0
    1b3e:	8c c0       	rjmp	.+280    	; 0x1c58 <check_condition+0x133e>
    1b40:	21 e0       	ldi	r18, 0x01	; 1
    1b42:	30 e0       	ldi	r19, 0x00	; 0
    1b44:	89 c0       	rjmp	.+274    	; 0x1c58 <check_condition+0x133e>
    1b46:	21 e0       	ldi	r18, 0x01	; 1
    1b48:	30 e0       	ldi	r19, 0x00	; 0
    1b4a:	86 c0       	rjmp	.+268    	; 0x1c58 <check_condition+0x133e>
    1b4c:	21 e0       	ldi	r18, 0x01	; 1
    1b4e:	30 e0       	ldi	r19, 0x00	; 0
    1b50:	83 c0       	rjmp	.+262    	; 0x1c58 <check_condition+0x133e>
    1b52:	21 e0       	ldi	r18, 0x01	; 1
    1b54:	30 e0       	ldi	r19, 0x00	; 0
    1b56:	80 c0       	rjmp	.+256    	; 0x1c58 <check_condition+0x133e>
    1b58:	21 e0       	ldi	r18, 0x01	; 1
    1b5a:	30 e0       	ldi	r19, 0x00	; 0
    1b5c:	7d c0       	rjmp	.+250    	; 0x1c58 <check_condition+0x133e>
    1b5e:	21 e0       	ldi	r18, 0x01	; 1
    1b60:	30 e0       	ldi	r19, 0x00	; 0
    1b62:	7a c0       	rjmp	.+244    	; 0x1c58 <check_condition+0x133e>
    1b64:	21 e0       	ldi	r18, 0x01	; 1
    1b66:	30 e0       	ldi	r19, 0x00	; 0
    1b68:	77 c0       	rjmp	.+238    	; 0x1c58 <check_condition+0x133e>
    1b6a:	21 e0       	ldi	r18, 0x01	; 1
    1b6c:	30 e0       	ldi	r19, 0x00	; 0
    1b6e:	74 c0       	rjmp	.+232    	; 0x1c58 <check_condition+0x133e>
    1b70:	21 e0       	ldi	r18, 0x01	; 1
    1b72:	30 e0       	ldi	r19, 0x00	; 0
    1b74:	71 c0       	rjmp	.+226    	; 0x1c58 <check_condition+0x133e>
    1b76:	21 e0       	ldi	r18, 0x01	; 1
    1b78:	30 e0       	ldi	r19, 0x00	; 0
    1b7a:	6e c0       	rjmp	.+220    	; 0x1c58 <check_condition+0x133e>
    1b7c:	21 e0       	ldi	r18, 0x01	; 1
    1b7e:	30 e0       	ldi	r19, 0x00	; 0
    1b80:	6b c0       	rjmp	.+214    	; 0x1c58 <check_condition+0x133e>
    1b82:	21 e0       	ldi	r18, 0x01	; 1
    1b84:	30 e0       	ldi	r19, 0x00	; 0
    1b86:	68 c0       	rjmp	.+208    	; 0x1c58 <check_condition+0x133e>
    1b88:	21 e0       	ldi	r18, 0x01	; 1
    1b8a:	30 e0       	ldi	r19, 0x00	; 0
    1b8c:	65 c0       	rjmp	.+202    	; 0x1c58 <check_condition+0x133e>
    1b8e:	21 e0       	ldi	r18, 0x01	; 1
    1b90:	30 e0       	ldi	r19, 0x00	; 0
    1b92:	62 c0       	rjmp	.+196    	; 0x1c58 <check_condition+0x133e>
    1b94:	21 e0       	ldi	r18, 0x01	; 1
    1b96:	30 e0       	ldi	r19, 0x00	; 0
    1b98:	5f c0       	rjmp	.+190    	; 0x1c58 <check_condition+0x133e>
    1b9a:	21 e0       	ldi	r18, 0x01	; 1
    1b9c:	30 e0       	ldi	r19, 0x00	; 0
    1b9e:	5c c0       	rjmp	.+184    	; 0x1c58 <check_condition+0x133e>
    1ba0:	21 e0       	ldi	r18, 0x01	; 1
    1ba2:	30 e0       	ldi	r19, 0x00	; 0
    1ba4:	59 c0       	rjmp	.+178    	; 0x1c58 <check_condition+0x133e>
    1ba6:	21 e0       	ldi	r18, 0x01	; 1
    1ba8:	30 e0       	ldi	r19, 0x00	; 0
    1baa:	56 c0       	rjmp	.+172    	; 0x1c58 <check_condition+0x133e>
    1bac:	21 e0       	ldi	r18, 0x01	; 1
    1bae:	30 e0       	ldi	r19, 0x00	; 0
    1bb0:	53 c0       	rjmp	.+166    	; 0x1c58 <check_condition+0x133e>
    1bb2:	21 e0       	ldi	r18, 0x01	; 1
    1bb4:	30 e0       	ldi	r19, 0x00	; 0
    1bb6:	50 c0       	rjmp	.+160    	; 0x1c58 <check_condition+0x133e>
    1bb8:	21 e0       	ldi	r18, 0x01	; 1
    1bba:	30 e0       	ldi	r19, 0x00	; 0
    1bbc:	4d c0       	rjmp	.+154    	; 0x1c58 <check_condition+0x133e>
    1bbe:	21 e0       	ldi	r18, 0x01	; 1
    1bc0:	30 e0       	ldi	r19, 0x00	; 0
    1bc2:	4a c0       	rjmp	.+148    	; 0x1c58 <check_condition+0x133e>
    1bc4:	21 e0       	ldi	r18, 0x01	; 1
    1bc6:	30 e0       	ldi	r19, 0x00	; 0
    1bc8:	47 c0       	rjmp	.+142    	; 0x1c58 <check_condition+0x133e>
    1bca:	21 e0       	ldi	r18, 0x01	; 1
    1bcc:	30 e0       	ldi	r19, 0x00	; 0
    1bce:	44 c0       	rjmp	.+136    	; 0x1c58 <check_condition+0x133e>
    1bd0:	21 e0       	ldi	r18, 0x01	; 1
    1bd2:	30 e0       	ldi	r19, 0x00	; 0
    1bd4:	41 c0       	rjmp	.+130    	; 0x1c58 <check_condition+0x133e>
    1bd6:	21 e0       	ldi	r18, 0x01	; 1
    1bd8:	30 e0       	ldi	r19, 0x00	; 0
    1bda:	3e c0       	rjmp	.+124    	; 0x1c58 <check_condition+0x133e>
    1bdc:	21 e0       	ldi	r18, 0x01	; 1
    1bde:	30 e0       	ldi	r19, 0x00	; 0
    1be0:	3b c0       	rjmp	.+118    	; 0x1c58 <check_condition+0x133e>
    1be2:	21 e0       	ldi	r18, 0x01	; 1
    1be4:	30 e0       	ldi	r19, 0x00	; 0
    1be6:	38 c0       	rjmp	.+112    	; 0x1c58 <check_condition+0x133e>
    1be8:	28 e0       	ldi	r18, 0x08	; 8
    1bea:	30 e0       	ldi	r19, 0x00	; 0
    1bec:	35 c0       	rjmp	.+106    	; 0x1c58 <check_condition+0x133e>
    1bee:	28 e0       	ldi	r18, 0x08	; 8
    1bf0:	30 e0       	ldi	r19, 0x00	; 0
    1bf2:	32 c0       	rjmp	.+100    	; 0x1c58 <check_condition+0x133e>
    1bf4:	21 e0       	ldi	r18, 0x01	; 1
    1bf6:	30 e0       	ldi	r19, 0x00	; 0
    1bf8:	2f c0       	rjmp	.+94     	; 0x1c58 <check_condition+0x133e>
    1bfa:	21 e0       	ldi	r18, 0x01	; 1
    1bfc:	30 e0       	ldi	r19, 0x00	; 0
    1bfe:	2c c0       	rjmp	.+88     	; 0x1c58 <check_condition+0x133e>
    1c00:	26 e0       	ldi	r18, 0x06	; 6
    1c02:	30 e0       	ldi	r19, 0x00	; 0
    1c04:	29 c0       	rjmp	.+82     	; 0x1c58 <check_condition+0x133e>
    1c06:	25 e0       	ldi	r18, 0x05	; 5
    1c08:	30 e0       	ldi	r19, 0x00	; 0
    1c0a:	26 c0       	rjmp	.+76     	; 0x1c58 <check_condition+0x133e>
    1c0c:	25 e0       	ldi	r18, 0x05	; 5
    1c0e:	30 e0       	ldi	r19, 0x00	; 0
    1c10:	23 c0       	rjmp	.+70     	; 0x1c58 <check_condition+0x133e>
    1c12:	25 e0       	ldi	r18, 0x05	; 5
    1c14:	30 e0       	ldi	r19, 0x00	; 0
    1c16:	20 c0       	rjmp	.+64     	; 0x1c58 <check_condition+0x133e>
    1c18:	26 e0       	ldi	r18, 0x06	; 6
    1c1a:	30 e0       	ldi	r19, 0x00	; 0
    1c1c:	1d c0       	rjmp	.+58     	; 0x1c58 <check_condition+0x133e>
    1c1e:	25 e0       	ldi	r18, 0x05	; 5
    1c20:	30 e0       	ldi	r19, 0x00	; 0
    1c22:	1a c0       	rjmp	.+52     	; 0x1c58 <check_condition+0x133e>
    1c24:	26 e0       	ldi	r18, 0x06	; 6
    1c26:	30 e0       	ldi	r19, 0x00	; 0
    1c28:	17 c0       	rjmp	.+46     	; 0x1c58 <check_condition+0x133e>
    1c2a:	27 e0       	ldi	r18, 0x07	; 7
    1c2c:	30 e0       	ldi	r19, 0x00	; 0
    1c2e:	14 c0       	rjmp	.+40     	; 0x1c58 <check_condition+0x133e>
    1c30:	27 e0       	ldi	r18, 0x07	; 7
    1c32:	30 e0       	ldi	r19, 0x00	; 0
    1c34:	11 c0       	rjmp	.+34     	; 0x1c58 <check_condition+0x133e>
    1c36:	22 e0       	ldi	r18, 0x02	; 2
    1c38:	30 e0       	ldi	r19, 0x00	; 0
    1c3a:	0e c0       	rjmp	.+28     	; 0x1c58 <check_condition+0x133e>
    1c3c:	26 e0       	ldi	r18, 0x06	; 6
    1c3e:	30 e0       	ldi	r19, 0x00	; 0
    1c40:	0b c0       	rjmp	.+22     	; 0x1c58 <check_condition+0x133e>
    1c42:	25 e0       	ldi	r18, 0x05	; 5
    1c44:	30 e0       	ldi	r19, 0x00	; 0
    1c46:	08 c0       	rjmp	.+16     	; 0x1c58 <check_condition+0x133e>
    1c48:	23 e0       	ldi	r18, 0x03	; 3
    1c4a:	30 e0       	ldi	r19, 0x00	; 0
    1c4c:	05 c0       	rjmp	.+10     	; 0x1c58 <check_condition+0x133e>
    1c4e:	20 e0       	ldi	r18, 0x00	; 0
    1c50:	30 e0       	ldi	r19, 0x00	; 0
    1c52:	02 c0       	rjmp	.+4      	; 0x1c58 <check_condition+0x133e>
    1c54:	20 e0       	ldi	r18, 0x00	; 0
    1c56:	30 e0       	ldi	r19, 0x00	; 0
    1c58:	82 2f       	mov	r24, r18
    1c5a:	93 2f       	mov	r25, r19
    1c5c:	08 95       	ret
    1c5e:	4d 31       	cpi	r20, 0x1D	; 29
    1c60:	51 05       	cpc	r21, r1
    1c62:	71 f2       	breq	.-100    	; 0x1c00 <check_condition+0x12e6>
    1c64:	77 cd       	rjmp	.-1298   	; 0x1754 <check_condition+0xe3a>
    1c66:	4c 31       	cpi	r20, 0x1C	; 28
    1c68:	51 05       	cpc	r21, r1
    1c6a:	69 f2       	breq	.-102    	; 0x1c06 <check_condition+0x12ec>
    1c6c:	6b cd       	rjmp	.-1322   	; 0x1744 <check_condition+0xe2a>
    1c6e:	4d 31       	cpi	r20, 0x1D	; 29
    1c70:	51 05       	cpc	r21, r1
    1c72:	61 f2       	breq	.-104    	; 0x1c0c <check_condition+0x12f2>
    1c74:	6f cd       	rjmp	.-1314   	; 0x1754 <check_condition+0xe3a>
    1c76:	4e 31       	cpi	r20, 0x1E	; 30
    1c78:	51 05       	cpc	r21, r1
    1c7a:	59 f2       	breq	.-106    	; 0x1c12 <check_condition+0x12f8>
    1c7c:	6b cd       	rjmp	.-1322   	; 0x1754 <check_condition+0xe3a>
    1c7e:	4f 31       	cpi	r20, 0x1F	; 31
    1c80:	51 05       	cpc	r21, r1
    1c82:	51 f2       	breq	.-108    	; 0x1c18 <check_condition+0x12fe>
    1c84:	67 cd       	rjmp	.-1330   	; 0x1754 <check_condition+0xe3a>
    1c86:	4f 31       	cpi	r20, 0x1F	; 31
    1c88:	51 05       	cpc	r21, r1
    1c8a:	49 f2       	breq	.-110    	; 0x1c1e <check_condition+0x1304>
    1c8c:	63 cd       	rjmp	.-1338   	; 0x1754 <check_condition+0xe3a>
    1c8e:	41 32       	cpi	r20, 0x21	; 33
    1c90:	51 05       	cpc	r21, r1
    1c92:	41 f2       	breq	.-112    	; 0x1c24 <check_condition+0x130a>
    1c94:	5f cd       	rjmp	.-1346   	; 0x1754 <check_condition+0xe3a>
    1c96:	41 32       	cpi	r20, 0x21	; 33
    1c98:	51 05       	cpc	r21, r1
    1c9a:	39 f2       	breq	.-114    	; 0x1c2a <check_condition+0x1310>
    1c9c:	5b cd       	rjmp	.-1354   	; 0x1754 <check_condition+0xe3a>
    1c9e:	4c 31       	cpi	r20, 0x1C	; 28
    1ca0:	51 05       	cpc	r21, r1
    1ca2:	31 f2       	breq	.-116    	; 0x1c30 <check_condition+0x1316>
    1ca4:	4f cd       	rjmp	.-1378   	; 0x1744 <check_condition+0xe2a>
    1ca6:	43 32       	cpi	r20, 0x23	; 35
    1ca8:	51 05       	cpc	r21, r1
    1caa:	29 f2       	breq	.-118    	; 0x1c36 <check_condition+0x131c>
    1cac:	53 cd       	rjmp	.-1370   	; 0x1754 <check_condition+0xe3a>
    1cae:	43 32       	cpi	r20, 0x23	; 35
    1cb0:	51 05       	cpc	r21, r1
    1cb2:	21 f2       	breq	.-120    	; 0x1c3c <check_condition+0x1322>
    1cb4:	4f cd       	rjmp	.-1378   	; 0x1754 <check_condition+0xe3a>
    1cb6:	44 32       	cpi	r20, 0x24	; 36
    1cb8:	51 05       	cpc	r21, r1
    1cba:	19 f2       	breq	.-122    	; 0x1c42 <check_condition+0x1328>
    1cbc:	4b cd       	rjmp	.-1386   	; 0x1754 <check_condition+0xe3a>
    1cbe:	44 32       	cpi	r20, 0x24	; 36
    1cc0:	51 05       	cpc	r21, r1
    1cc2:	11 f2       	breq	.-124    	; 0x1c48 <check_condition+0x132e>
    1cc4:	47 cd       	rjmp	.-1394   	; 0x1754 <check_condition+0xe3a>
    1cc6:	80 91 71 02 	lds	r24, 0x0271	; 0x800271 <Center_white_line>
    1cca:	87 39       	cpi	r24, 0x97	; 151
    1ccc:	08 f4       	brcc	.+2      	; 0x1cd0 <check_condition+0x13b6>
    1cce:	eb c9       	rjmp	.-3114   	; 0x10a6 <check_condition+0x78c>
    1cd0:	be cf       	rjmp	.-132    	; 0x1c4e <check_condition+0x1334>
    1cd2:	80 91 71 02 	lds	r24, 0x0271	; 0x800271 <Center_white_line>
    1cd6:	87 39       	cpi	r24, 0x97	; 151
    1cd8:	08 f4       	brcc	.+2      	; 0x1cdc <check_condition+0x13c2>
    1cda:	e5 c9       	rjmp	.-3126   	; 0x10a6 <check_condition+0x78c>
    1cdc:	bb cf       	rjmp	.-138    	; 0x1c54 <check_condition+0x133a>
    1cde:	66 32       	cpi	r22, 0x26	; 38
    1ce0:	71 05       	cpc	r23, r1
    1ce2:	09 f4       	brne	.+2      	; 0x1ce6 <check_condition+0x13cc>
    1ce4:	26 cd       	rjmp	.-1460   	; 0x1732 <check_condition+0xe18>
    1ce6:	36 cd       	rjmp	.-1428   	; 0x1754 <check_condition+0xe3a>

00001ce8 <initialize>:
    1ce8:	e5 e7       	ldi	r30, 0x75	; 117
    1cea:	f2 e0       	ldi	r31, 0x02	; 2
    1cec:	25 ec       	ldi	r18, 0xC5	; 197
    1cee:	32 e0       	ldi	r19, 0x02	; 2
    1cf0:	89 e1       	ldi	r24, 0x19	; 25
    1cf2:	9c ef       	ldi	r25, 0xFC	; 252
    1cf4:	81 93       	st	Z+, r24
    1cf6:	91 93       	st	Z+, r25
    1cf8:	e2 17       	cp	r30, r18
    1cfa:	f3 07       	cpc	r31, r19
    1cfc:	d9 f7       	brne	.-10     	; 0x1cf4 <initialize+0xc>
    1cfe:	e8 e1       	ldi	r30, 0x18	; 24
    1d00:	f3 e0       	ldi	r31, 0x03	; 3
    1d02:	20 e4       	ldi	r18, 0x40	; 64
    1d04:	33 e0       	ldi	r19, 0x03	; 3
    1d06:	89 e1       	ldi	r24, 0x19	; 25
    1d08:	9c ef       	ldi	r25, 0xFC	; 252
    1d0a:	81 93       	st	Z+, r24
    1d0c:	91 93       	st	Z+, r25
    1d0e:	e2 17       	cp	r30, r18
    1d10:	f3 07       	cpc	r31, r19
    1d12:	d9 f7       	brne	.-10     	; 0x1d0a <initialize+0x22>
    1d14:	08 95       	ret

00001d16 <push>:
    1d16:	20 91 75 02 	lds	r18, 0x0275	; 0x800275 <path>
    1d1a:	30 91 76 02 	lds	r19, 0x0276	; 0x800276 <path+0x1>
    1d1e:	29 31       	cpi	r18, 0x19	; 25
    1d20:	3c 4f       	sbci	r19, 0xFC	; 252
    1d22:	51 f0       	breq	.+20     	; 0x1d38 <push+0x22>
    1d24:	e7 e7       	ldi	r30, 0x77	; 119
    1d26:	f2 e0       	ldi	r31, 0x02	; 2
    1d28:	21 e0       	ldi	r18, 0x01	; 1
    1d2a:	30 e0       	ldi	r19, 0x00	; 0
    1d2c:	41 91       	ld	r20, Z+
    1d2e:	51 91       	ld	r21, Z+
    1d30:	49 31       	cpi	r20, 0x19	; 25
    1d32:	5c 4f       	sbci	r21, 0xFC	; 252
    1d34:	59 f4       	brne	.+22     	; 0x1d4c <push+0x36>
    1d36:	02 c0       	rjmp	.+4      	; 0x1d3c <push+0x26>
    1d38:	20 e0       	ldi	r18, 0x00	; 0
    1d3a:	30 e0       	ldi	r19, 0x00	; 0
    1d3c:	22 0f       	add	r18, r18
    1d3e:	33 1f       	adc	r19, r19
    1d40:	f9 01       	movw	r30, r18
    1d42:	eb 58       	subi	r30, 0x8B	; 139
    1d44:	fd 4f       	sbci	r31, 0xFD	; 253
    1d46:	91 83       	std	Z+1, r25	; 0x01
    1d48:	80 83       	st	Z, r24
    1d4a:	08 95       	ret
    1d4c:	2f 5f       	subi	r18, 0xFF	; 255
    1d4e:	3f 4f       	sbci	r19, 0xFF	; 255
    1d50:	28 32       	cpi	r18, 0x28	; 40
    1d52:	31 05       	cpc	r19, r1
    1d54:	59 f7       	brne	.-42     	; 0x1d2c <push+0x16>
    1d56:	08 95       	ret

00001d58 <pushp>:
    1d58:	20 91 18 03 	lds	r18, 0x0318	; 0x800318 <bot>
    1d5c:	30 91 19 03 	lds	r19, 0x0319	; 0x800319 <bot+0x1>
    1d60:	29 31       	cpi	r18, 0x19	; 25
    1d62:	3c 4f       	sbci	r19, 0xFC	; 252
    1d64:	51 f0       	breq	.+20     	; 0x1d7a <pushp+0x22>
    1d66:	ea e1       	ldi	r30, 0x1A	; 26
    1d68:	f3 e0       	ldi	r31, 0x03	; 3
    1d6a:	21 e0       	ldi	r18, 0x01	; 1
    1d6c:	30 e0       	ldi	r19, 0x00	; 0
    1d6e:	41 91       	ld	r20, Z+
    1d70:	51 91       	ld	r21, Z+
    1d72:	49 31       	cpi	r20, 0x19	; 25
    1d74:	5c 4f       	sbci	r21, 0xFC	; 252
    1d76:	59 f4       	brne	.+22     	; 0x1d8e <pushp+0x36>
    1d78:	02 c0       	rjmp	.+4      	; 0x1d7e <pushp+0x26>
    1d7a:	20 e0       	ldi	r18, 0x00	; 0
    1d7c:	30 e0       	ldi	r19, 0x00	; 0
    1d7e:	22 0f       	add	r18, r18
    1d80:	33 1f       	adc	r19, r19
    1d82:	f9 01       	movw	r30, r18
    1d84:	e8 5e       	subi	r30, 0xE8	; 232
    1d86:	fc 4f       	sbci	r31, 0xFC	; 252
    1d88:	91 83       	std	Z+1, r25	; 0x01
    1d8a:	80 83       	st	Z, r24
    1d8c:	08 95       	ret
    1d8e:	2f 5f       	subi	r18, 0xFF	; 255
    1d90:	3f 4f       	sbci	r19, 0xFF	; 255
    1d92:	24 31       	cpi	r18, 0x14	; 20
    1d94:	31 05       	cpc	r19, r1
    1d96:	59 f7       	brne	.-42     	; 0x1d6e <pushp+0x16>
    1d98:	08 95       	ret

00001d9a <minDistance>:
    1d9a:	cf 93       	push	r28
    1d9c:	df 93       	push	r29
    1d9e:	db 01       	movw	r26, r22
    1da0:	fc 01       	movw	r30, r24
    1da2:	20 e0       	ldi	r18, 0x00	; 0
    1da4:	30 e0       	ldi	r19, 0x00	; 0
    1da6:	4f ef       	ldi	r20, 0xFF	; 255
    1da8:	5f e7       	ldi	r21, 0x7F	; 127
    1daa:	8d 91       	ld	r24, X+
    1dac:	81 11       	cpse	r24, r1
    1dae:	08 c0       	rjmp	.+16     	; 0x1dc0 <minDistance+0x26>
    1db0:	80 81       	ld	r24, Z
    1db2:	91 81       	ldd	r25, Z+1	; 0x01
    1db4:	48 17       	cp	r20, r24
    1db6:	59 07       	cpc	r21, r25
    1db8:	1c f0       	brlt	.+6      	; 0x1dc0 <minDistance+0x26>
    1dba:	d2 2f       	mov	r29, r18
    1dbc:	c3 2f       	mov	r28, r19
    1dbe:	ac 01       	movw	r20, r24
    1dc0:	2f 5f       	subi	r18, 0xFF	; 255
    1dc2:	3f 4f       	sbci	r19, 0xFF	; 255
    1dc4:	32 96       	adiw	r30, 0x02	; 2
    1dc6:	28 32       	cpi	r18, 0x28	; 40
    1dc8:	31 05       	cpc	r19, r1
    1dca:	79 f7       	brne	.-34     	; 0x1daa <minDistance+0x10>
    1dcc:	8d 2f       	mov	r24, r29
    1dce:	9c 2f       	mov	r25, r28
    1dd0:	df 91       	pop	r29
    1dd2:	cf 91       	pop	r28
    1dd4:	08 95       	ret

00001dd6 <printPath>:
    1dd6:	cf 93       	push	r28
    1dd8:	df 93       	push	r29
    1dda:	fb 01       	movw	r30, r22
    1ddc:	ee 0f       	add	r30, r30
    1dde:	ff 1f       	adc	r31, r31
    1de0:	e8 0f       	add	r30, r24
    1de2:	f9 1f       	adc	r31, r25
    1de4:	20 81       	ld	r18, Z
    1de6:	31 81       	ldd	r19, Z+1	; 0x01
    1de8:	2f 3f       	cpi	r18, 0xFF	; 255
    1dea:	4f ef       	ldi	r20, 0xFF	; 255
    1dec:	34 07       	cpc	r19, r20
    1dee:	89 f0       	breq	.+34     	; 0x1e12 <printPath+0x3c>
    1df0:	eb 01       	movw	r28, r22
    1df2:	b9 01       	movw	r22, r18
    1df4:	f0 df       	rcall	.-32     	; 0x1dd6 <printPath>
    1df6:	df 93       	push	r29
    1df8:	cf 93       	push	r28
    1dfa:	81 e2       	ldi	r24, 0x21	; 33
    1dfc:	92 e0       	ldi	r25, 0x02	; 2
    1dfe:	9f 93       	push	r25
    1e00:	8f 93       	push	r24
    1e02:	0e 94 83 1b 	call	0x3706	; 0x3706 <printf>
    1e06:	ce 01       	movw	r24, r28
    1e08:	86 df       	rcall	.-244    	; 0x1d16 <push>
    1e0a:	0f 90       	pop	r0
    1e0c:	0f 90       	pop	r0
    1e0e:	0f 90       	pop	r0
    1e10:	0f 90       	pop	r0
    1e12:	df 91       	pop	r29
    1e14:	cf 91       	pop	r28
    1e16:	08 95       	ret

00001e18 <printSolution>:
    1e18:	0f 93       	push	r16
    1e1a:	1f 93       	push	r17
    1e1c:	cf 93       	push	r28
    1e1e:	df 93       	push	r29
    1e20:	ea 01       	movw	r28, r20
    1e22:	3f 93       	push	r19
    1e24:	2f 93       	push	r18
    1e26:	f8 01       	movw	r30, r16
    1e28:	ee 0f       	add	r30, r30
    1e2a:	ff 1f       	adc	r31, r31
    1e2c:	e8 0f       	add	r30, r24
    1e2e:	f9 1f       	adc	r31, r25
    1e30:	81 81       	ldd	r24, Z+1	; 0x01
    1e32:	8f 93       	push	r24
    1e34:	80 81       	ld	r24, Z
    1e36:	8f 93       	push	r24
    1e38:	1f 93       	push	r17
    1e3a:	0f 93       	push	r16
    1e3c:	3f 93       	push	r19
    1e3e:	2f 93       	push	r18
    1e40:	80 e1       	ldi	r24, 0x10	; 16
    1e42:	92 e0       	ldi	r25, 0x02	; 2
    1e44:	9f 93       	push	r25
    1e46:	8f 93       	push	r24
    1e48:	0e 94 83 1b 	call	0x3706	; 0x3706 <printf>
    1e4c:	b8 01       	movw	r22, r16
    1e4e:	ce 01       	movw	r24, r28
    1e50:	c2 df       	rcall	.-124    	; 0x1dd6 <printPath>
    1e52:	8d b7       	in	r24, 0x3d	; 61
    1e54:	9e b7       	in	r25, 0x3e	; 62
    1e56:	0a 96       	adiw	r24, 0x0a	; 10
    1e58:	0f b6       	in	r0, 0x3f	; 63
    1e5a:	f8 94       	cli
    1e5c:	9e bf       	out	0x3e, r25	; 62
    1e5e:	0f be       	out	0x3f, r0	; 63
    1e60:	8d bf       	out	0x3d, r24	; 61
    1e62:	df 91       	pop	r29
    1e64:	cf 91       	pop	r28
    1e66:	1f 91       	pop	r17
    1e68:	0f 91       	pop	r16
    1e6a:	08 95       	ret

00001e6c <dijkstra>:
    1e6c:	2f 92       	push	r2
    1e6e:	3f 92       	push	r3
    1e70:	4f 92       	push	r4
    1e72:	5f 92       	push	r5
    1e74:	6f 92       	push	r6
    1e76:	7f 92       	push	r7
    1e78:	8f 92       	push	r8
    1e7a:	9f 92       	push	r9
    1e7c:	af 92       	push	r10
    1e7e:	bf 92       	push	r11
    1e80:	cf 92       	push	r12
    1e82:	df 92       	push	r13
    1e84:	ef 92       	push	r14
    1e86:	ff 92       	push	r15
    1e88:	0f 93       	push	r16
    1e8a:	1f 93       	push	r17
    1e8c:	cf 93       	push	r28
    1e8e:	df 93       	push	r29
    1e90:	cd b7       	in	r28, 0x3d	; 61
    1e92:	de b7       	in	r29, 0x3e	; 62
    1e94:	cc 5c       	subi	r28, 0xCC	; 204
    1e96:	d1 09       	sbc	r29, r1
    1e98:	0f b6       	in	r0, 0x3f	; 63
    1e9a:	f8 94       	cli
    1e9c:	de bf       	out	0x3e, r29	; 62
    1e9e:	0f be       	out	0x3f, r0	; 63
    1ea0:	cd bf       	out	0x3d, r28	; 61
    1ea2:	4c 01       	movw	r8, r24
    1ea4:	1b 01       	movw	r2, r22
    1ea6:	c7 53       	subi	r28, 0x37	; 55
    1ea8:	df 4f       	sbci	r29, 0xFF	; 255
    1eaa:	59 83       	std	Y+1, r21	; 0x01
    1eac:	48 83       	st	Y, r20
    1eae:	c9 5c       	subi	r28, 0xC9	; 201
    1eb0:	d0 40       	sbci	r29, 0x00	; 0
    1eb2:	2e 01       	movw	r4, r28
    1eb4:	21 e5       	ldi	r18, 0x51	; 81
    1eb6:	42 0e       	add	r4, r18
    1eb8:	51 1c       	adc	r5, r1
    1eba:	92 01       	movw	r18, r4
    1ebc:	d2 01       	movw	r26, r4
    1ebe:	fe 01       	movw	r30, r28
    1ec0:	31 96       	adiw	r30, 0x01	; 1
    1ec2:	8f ef       	ldi	r24, 0xFF	; 255
    1ec4:	9f e7       	ldi	r25, 0x7F	; 127
    1ec6:	81 93       	st	Z+, r24
    1ec8:	91 93       	st	Z+, r25
    1eca:	1d 92       	st	X+, r1
    1ecc:	e2 17       	cp	r30, r18
    1ece:	f3 07       	cpc	r31, r19
    1ed0:	d1 f7       	brne	.-12     	; 0x1ec6 <dijkstra+0x5a>
    1ed2:	c1 01       	movw	r24, r2
    1ed4:	88 0f       	add	r24, r24
    1ed6:	99 1f       	adc	r25, r25
    1ed8:	e9 e7       	ldi	r30, 0x79	; 121
    1eda:	f0 e0       	ldi	r31, 0x00	; 0
    1edc:	ec 0f       	add	r30, r28
    1ede:	fd 1f       	adc	r31, r29
    1ee0:	e8 0f       	add	r30, r24
    1ee2:	f9 1f       	adc	r31, r25
    1ee4:	2f ef       	ldi	r18, 0xFF	; 255
    1ee6:	3f ef       	ldi	r19, 0xFF	; 255
    1ee8:	31 83       	std	Z+1, r19	; 0x01
    1eea:	20 83       	st	Z, r18
    1eec:	fe 01       	movw	r30, r28
    1eee:	e8 0f       	add	r30, r24
    1ef0:	f9 1f       	adc	r31, r25
    1ef2:	12 82       	std	Z+2, r1	; 0x02
    1ef4:	11 82       	std	Z+1, r1	; 0x01
    1ef6:	0f 2e       	mov	r0, r31
    1ef8:	f7 e2       	ldi	r31, 0x27	; 39
    1efa:	af 2e       	mov	r10, r31
    1efc:	b1 2c       	mov	r11, r1
    1efe:	f0 2d       	mov	r31, r0
    1f00:	77 24       	eor	r7, r7
    1f02:	73 94       	inc	r7
    1f04:	0f 2e       	mov	r0, r31
    1f06:	f0 e5       	ldi	r31, 0x50	; 80
    1f08:	6f 2e       	mov	r6, r31
    1f0a:	f0 2d       	mov	r31, r0
    1f0c:	01 e5       	ldi	r16, 0x51	; 81
    1f0e:	10 e0       	ldi	r17, 0x00	; 0
    1f10:	0c 0f       	add	r16, r28
    1f12:	1d 1f       	adc	r17, r29
    1f14:	08 5d       	subi	r16, 0xD8	; 216
    1f16:	1f 4f       	sbci	r17, 0xFF	; 255
    1f18:	be 01       	movw	r22, r28
    1f1a:	6f 5a       	subi	r22, 0xAF	; 175
    1f1c:	7f 4f       	sbci	r23, 0xFF	; 255
    1f1e:	ce 01       	movw	r24, r28
    1f20:	01 96       	adiw	r24, 0x01	; 1
    1f22:	3b df       	rcall	.-394    	; 0x1d9a <minDistance>
    1f24:	e1 e5       	ldi	r30, 0x51	; 81
    1f26:	f0 e0       	ldi	r31, 0x00	; 0
    1f28:	ec 0f       	add	r30, r28
    1f2a:	fd 1f       	adc	r31, r29
    1f2c:	e8 0f       	add	r30, r24
    1f2e:	f9 1f       	adc	r31, r25
    1f30:	70 82       	st	Z, r7
    1f32:	68 9e       	mul	r6, r24
    1f34:	d0 01       	movw	r26, r0
    1f36:	69 9e       	mul	r6, r25
    1f38:	b0 0d       	add	r27, r0
    1f3a:	11 24       	eor	r1, r1
    1f3c:	bd 01       	movw	r22, r26
    1f3e:	68 0d       	add	r22, r8
    1f40:	79 1d       	adc	r23, r9
    1f42:	c5 53       	subi	r28, 0x35	; 53
    1f44:	df 4f       	sbci	r29, 0xFF	; 255
    1f46:	79 83       	std	Y+1, r23	; 0x01
    1f48:	68 83       	st	Y, r22
    1f4a:	cb 5c       	subi	r28, 0xCB	; 203
    1f4c:	d0 40       	sbci	r29, 0x00	; 0
    1f4e:	ae 01       	movw	r20, r28
    1f50:	47 58       	subi	r20, 0x87	; 135
    1f52:	5f 4f       	sbci	r21, 0xFF	; 255
    1f54:	9e 01       	movw	r18, r28
    1f56:	2f 5f       	subi	r18, 0xFF	; 255
    1f58:	3f 4f       	sbci	r19, 0xFF	; 255
    1f5a:	f2 01       	movw	r30, r4
    1f5c:	7c 01       	movw	r14, r24
    1f5e:	ee 0c       	add	r14, r14
    1f60:	ff 1c       	adc	r15, r15
    1f62:	e2 0e       	add	r14, r18
    1f64:	f3 1e       	adc	r15, r19
    1f66:	61 91       	ld	r22, Z+
    1f68:	61 11       	cpse	r22, r1
    1f6a:	1c c0       	rjmp	.+56     	; 0x1fa4 <dijkstra+0x138>
    1f6c:	c5 53       	subi	r28, 0x35	; 53
    1f6e:	df 4f       	sbci	r29, 0xFF	; 255
    1f70:	a8 81       	ld	r26, Y
    1f72:	b9 81       	ldd	r27, Y+1	; 0x01
    1f74:	cb 5c       	subi	r28, 0xCB	; 203
    1f76:	d0 40       	sbci	r29, 0x00	; 0
    1f78:	6d 91       	ld	r22, X+
    1f7a:	7c 91       	ld	r23, X
    1f7c:	61 15       	cp	r22, r1
    1f7e:	71 05       	cpc	r23, r1
    1f80:	89 f0       	breq	.+34     	; 0x1fa4 <dijkstra+0x138>
    1f82:	d7 01       	movw	r26, r14
    1f84:	cd 90       	ld	r12, X+
    1f86:	dc 90       	ld	r13, X
    1f88:	6c 0d       	add	r22, r12
    1f8a:	7d 1d       	adc	r23, r13
    1f8c:	d9 01       	movw	r26, r18
    1f8e:	cd 90       	ld	r12, X+
    1f90:	dc 90       	ld	r13, X
    1f92:	6c 15       	cp	r22, r12
    1f94:	7d 05       	cpc	r23, r13
    1f96:	34 f4       	brge	.+12     	; 0x1fa4 <dijkstra+0x138>
    1f98:	da 01       	movw	r26, r20
    1f9a:	8d 93       	st	X+, r24
    1f9c:	9c 93       	st	X, r25
    1f9e:	d9 01       	movw	r26, r18
    1fa0:	6d 93       	st	X+, r22
    1fa2:	7c 93       	st	X, r23
    1fa4:	c5 53       	subi	r28, 0x35	; 53
    1fa6:	df 4f       	sbci	r29, 0xFF	; 255
    1fa8:	68 81       	ld	r22, Y
    1faa:	79 81       	ldd	r23, Y+1	; 0x01
    1fac:	cb 5c       	subi	r28, 0xCB	; 203
    1fae:	d0 40       	sbci	r29, 0x00	; 0
    1fb0:	6e 5f       	subi	r22, 0xFE	; 254
    1fb2:	7f 4f       	sbci	r23, 0xFF	; 255
    1fb4:	c5 53       	subi	r28, 0x35	; 53
    1fb6:	df 4f       	sbci	r29, 0xFF	; 255
    1fb8:	79 83       	std	Y+1, r23	; 0x01
    1fba:	68 83       	st	Y, r22
    1fbc:	cb 5c       	subi	r28, 0xCB	; 203
    1fbe:	d0 40       	sbci	r29, 0x00	; 0
    1fc0:	2e 5f       	subi	r18, 0xFE	; 254
    1fc2:	3f 4f       	sbci	r19, 0xFF	; 255
    1fc4:	4e 5f       	subi	r20, 0xFE	; 254
    1fc6:	5f 4f       	sbci	r21, 0xFF	; 255
    1fc8:	e0 17       	cp	r30, r16
    1fca:	f1 07       	cpc	r31, r17
    1fcc:	61 f6       	brne	.-104    	; 0x1f66 <dijkstra+0xfa>
    1fce:	71 e0       	ldi	r23, 0x01	; 1
    1fd0:	a7 1a       	sub	r10, r23
    1fd2:	b1 08       	sbc	r11, r1
    1fd4:	09 f0       	breq	.+2      	; 0x1fd8 <dijkstra+0x16c>
    1fd6:	a0 cf       	rjmp	.-192    	; 0x1f18 <dijkstra+0xac>
    1fd8:	c7 53       	subi	r28, 0x37	; 55
    1fda:	df 4f       	sbci	r29, 0xFF	; 255
    1fdc:	08 81       	ld	r16, Y
    1fde:	19 81       	ldd	r17, Y+1	; 0x01
    1fe0:	c9 5c       	subi	r28, 0xC9	; 201
    1fe2:	d0 40       	sbci	r29, 0x00	; 0
    1fe4:	91 01       	movw	r18, r2
    1fe6:	ae 01       	movw	r20, r28
    1fe8:	47 58       	subi	r20, 0x87	; 135
    1fea:	5f 4f       	sbci	r21, 0xFF	; 255
    1fec:	68 e2       	ldi	r22, 0x28	; 40
    1fee:	70 e0       	ldi	r23, 0x00	; 0
    1ff0:	ce 01       	movw	r24, r28
    1ff2:	01 96       	adiw	r24, 0x01	; 1
    1ff4:	11 df       	rcall	.-478    	; 0x1e18 <printSolution>
    1ff6:	c4 53       	subi	r28, 0x34	; 52
    1ff8:	df 4f       	sbci	r29, 0xFF	; 255
    1ffa:	0f b6       	in	r0, 0x3f	; 63
    1ffc:	f8 94       	cli
    1ffe:	de bf       	out	0x3e, r29	; 62
    2000:	0f be       	out	0x3f, r0	; 63
    2002:	cd bf       	out	0x3d, r28	; 61
    2004:	df 91       	pop	r29
    2006:	cf 91       	pop	r28
    2008:	1f 91       	pop	r17
    200a:	0f 91       	pop	r16
    200c:	ff 90       	pop	r15
    200e:	ef 90       	pop	r14
    2010:	df 90       	pop	r13
    2012:	cf 90       	pop	r12
    2014:	bf 90       	pop	r11
    2016:	af 90       	pop	r10
    2018:	9f 90       	pop	r9
    201a:	8f 90       	pop	r8
    201c:	7f 90       	pop	r7
    201e:	6f 90       	pop	r6
    2020:	5f 90       	pop	r5
    2022:	4f 90       	pop	r4
    2024:	3f 90       	pop	r3
    2026:	2f 90       	pop	r2
    2028:	08 95       	ret

0000202a <find_path>:
    202a:	4f 92       	push	r4
    202c:	5f 92       	push	r5
    202e:	6f 92       	push	r6
    2030:	7f 92       	push	r7
    2032:	8f 92       	push	r8
    2034:	9f 92       	push	r9
    2036:	af 92       	push	r10
    2038:	bf 92       	push	r11
    203a:	cf 92       	push	r12
    203c:	df 92       	push	r13
    203e:	ef 92       	push	r14
    2040:	ff 92       	push	r15
    2042:	0f 93       	push	r16
    2044:	1f 93       	push	r17
    2046:	cf 93       	push	r28
    2048:	df 93       	push	r29
    204a:	cd b7       	in	r28, 0x3d	; 61
    204c:	de b7       	in	r29, 0x3e	; 62
    204e:	c0 58       	subi	r28, 0x80	; 128
    2050:	dc 40       	sbci	r29, 0x0C	; 12
    2052:	0f b6       	in	r0, 0x3f	; 63
    2054:	f8 94       	cli
    2056:	de bf       	out	0x3e, r29	; 62
    2058:	0f be       	out	0x3f, r0	; 63
    205a:	cd bf       	out	0x3d, r28	; 61
    205c:	3c 01       	movw	r6, r24
    205e:	2b 01       	movw	r4, r22
    2060:	80 91 6a 02 	lds	r24, 0x026A	; 0x80026a <pushvarible>
    2064:	90 91 6b 02 	lds	r25, 0x026B	; 0x80026b <pushvarible+0x1>
    2068:	18 16       	cp	r1, r24
    206a:	19 06       	cpc	r1, r25
    206c:	2c f4       	brge	.+10     	; 0x2078 <find_path+0x4e>
    206e:	80 91 d7 02 	lds	r24, 0x02D7	; 0x8002d7 <pass+0xc>
    2072:	90 91 d8 02 	lds	r25, 0x02D8	; 0x8002d8 <pass+0xd>
    2076:	4f de       	rcall	.-866    	; 0x1d16 <push>
    2078:	80 91 6a 02 	lds	r24, 0x026A	; 0x80026a <pushvarible>
    207c:	90 91 6b 02 	lds	r25, 0x026B	; 0x80026b <pushvarible+0x1>
    2080:	01 96       	adiw	r24, 0x01	; 1
    2082:	90 93 6b 02 	sts	0x026B, r25	; 0x80026b <pushvarible+0x1>
    2086:	80 93 6a 02 	sts	0x026A, r24	; 0x80026a <pushvarible>
    208a:	c3 01       	movw	r24, r6
    208c:	44 de       	rcall	.-888    	; 0x1d16 <push>
    208e:	9e 01       	movw	r18, r28
    2090:	2f 5f       	subi	r18, 0xFF	; 255
    2092:	3f 4f       	sbci	r19, 0xFF	; 255
    2094:	49 01       	movw	r8, r18
    2096:	80 e8       	ldi	r24, 0x80	; 128
    2098:	9c e0       	ldi	r25, 0x0C	; 12
    209a:	f9 01       	movw	r30, r18
    209c:	9c 01       	movw	r18, r24
    209e:	11 92       	st	Z+, r1
    20a0:	21 50       	subi	r18, 0x01	; 1
    20a2:	30 40       	sbci	r19, 0x00	; 0
    20a4:	e1 f7       	brne	.-8      	; 0x209e <find_path+0x74>
    20a6:	2e e1       	ldi	r18, 0x1E	; 30
    20a8:	30 e0       	ldi	r19, 0x00	; 0
    20aa:	3c 83       	std	Y+4, r19	; 0x04
    20ac:	2b 83       	std	Y+3, r18	; 0x03
    20ae:	e9 e3       	ldi	r30, 0x39	; 57
    20b0:	f0 e0       	ldi	r31, 0x00	; 0
    20b2:	fc 8f       	std	Y+28, r31	; 0x1c
    20b4:	eb 8f       	std	Y+27, r30	; 0x1b
    20b6:	8d e0       	ldi	r24, 0x0D	; 13
    20b8:	90 e0       	ldi	r25, 0x00	; 0
    20ba:	9a af       	std	Y+58, r25	; 0x3a
    20bc:	89 af       	std	Y+57, r24	; 0x39
    20be:	63 96       	adiw	r28, 0x13	; 19
    20c0:	3f af       	std	Y+63, r19	; 0x3f
    20c2:	2e af       	std	Y+62, r18	; 0x3e
    20c4:	63 97       	sbiw	r28, 0x13	; 19
    20c6:	66 e1       	ldi	r22, 0x16	; 22
    20c8:	70 e0       	ldi	r23, 0x00	; 0
    20ca:	67 96       	adiw	r28, 0x17	; 23
    20cc:	7f af       	std	Y+63, r23	; 0x3f
    20ce:	6e af       	std	Y+62, r22	; 0x3e
    20d0:	67 97       	sbiw	r28, 0x17	; 23
    20d2:	00 e3       	ldi	r16, 0x30	; 48
    20d4:	10 e0       	ldi	r17, 0x00	; 0
    20d6:	ab 96       	adiw	r28, 0x2b	; 43
    20d8:	1f af       	std	Y+63, r17	; 0x3f
    20da:	0e af       	std	Y+62, r16	; 0x3e
    20dc:	ab 97       	sbiw	r28, 0x2b	; 43
    20de:	c5 57       	subi	r28, 0x75	; 117
    20e0:	df 4f       	sbci	r29, 0xFF	; 255
    20e2:	99 83       	std	Y+1, r25	; 0x01
    20e4:	88 83       	st	Y, r24
    20e6:	cb 58       	subi	r28, 0x8B	; 139
    20e8:	d0 40       	sbci	r29, 0x00	; 0
    20ea:	cd 55       	subi	r28, 0x5D	; 93
    20ec:	df 4f       	sbci	r29, 0xFF	; 255
    20ee:	79 83       	std	Y+1, r23	; 0x01
    20f0:	68 83       	st	Y, r22
    20f2:	c3 5a       	subi	r28, 0xA3	; 163
    20f4:	d0 40       	sbci	r29, 0x00	; 0
    20f6:	44 e1       	ldi	r20, 0x14	; 20
    20f8:	50 e0       	ldi	r21, 0x00	; 0
    20fa:	c9 55       	subi	r28, 0x59	; 89
    20fc:	df 4f       	sbci	r29, 0xFF	; 255
    20fe:	59 83       	std	Y+1, r21	; 0x01
    2100:	48 83       	st	Y, r20
    2102:	c7 5a       	subi	r28, 0xA7	; 167
    2104:	d0 40       	sbci	r29, 0x00	; 0
    2106:	c3 52       	subi	r28, 0x23	; 35
    2108:	df 4f       	sbci	r29, 0xFF	; 255
    210a:	99 83       	std	Y+1, r25	; 0x01
    210c:	88 83       	st	Y, r24
    210e:	cd 5d       	subi	r28, 0xDD	; 221
    2110:	d0 40       	sbci	r29, 0x00	; 0
    2112:	cb 50       	subi	r28, 0x0B	; 11
    2114:	df 4f       	sbci	r29, 0xFF	; 255
    2116:	59 83       	std	Y+1, r21	; 0x01
    2118:	48 83       	st	Y, r20
    211a:	c5 5f       	subi	r28, 0xF5	; 245
    211c:	d0 40       	sbci	r29, 0x00	; 0
    211e:	c7 50       	subi	r28, 0x07	; 7
    2120:	df 4f       	sbci	r29, 0xFF	; 255
    2122:	59 83       	std	Y+1, r21	; 0x01
    2124:	48 83       	st	Y, r20
    2126:	c9 5f       	subi	r28, 0xF9	; 249
    2128:	d0 40       	sbci	r29, 0x00	; 0
    212a:	c9 5b       	subi	r28, 0xB9	; 185
    212c:	de 4f       	sbci	r29, 0xFE	; 254
    212e:	59 83       	std	Y+1, r21	; 0x01
    2130:	48 83       	st	Y, r20
    2132:	c7 54       	subi	r28, 0x47	; 71
    2134:	d1 40       	sbci	r29, 0x01	; 1
    2136:	c5 5b       	subi	r28, 0xB5	; 181
    2138:	de 4f       	sbci	r29, 0xFE	; 254
    213a:	79 83       	std	Y+1, r23	; 0x01
    213c:	68 83       	st	Y, r22
    213e:	cb 54       	subi	r28, 0x4B	; 75
    2140:	d1 40       	sbci	r29, 0x01	; 1
    2142:	c1 58       	subi	r28, 0x81	; 129
    2144:	de 4f       	sbci	r29, 0xFE	; 254
    2146:	99 83       	std	Y+1, r25	; 0x01
    2148:	88 83       	st	Y, r24
    214a:	cf 57       	subi	r28, 0x7F	; 127
    214c:	d1 40       	sbci	r29, 0x01	; 1
    214e:	c7 56       	subi	r28, 0x67	; 103
    2150:	de 4f       	sbci	r29, 0xFE	; 254
    2152:	79 83       	std	Y+1, r23	; 0x01
    2154:	68 83       	st	Y, r22
    2156:	c9 59       	subi	r28, 0x99	; 153
    2158:	d1 40       	sbci	r29, 0x01	; 1
    215a:	c3 56       	subi	r28, 0x63	; 99
    215c:	de 4f       	sbci	r29, 0xFE	; 254
    215e:	39 83       	std	Y+1, r19	; 0x01
    2160:	28 83       	st	Y, r18
    2162:	cd 59       	subi	r28, 0x9D	; 157
    2164:	d1 40       	sbci	r29, 0x01	; 1
    2166:	cf 55       	subi	r28, 0x5F	; 95
    2168:	de 4f       	sbci	r29, 0xFE	; 254
    216a:	19 83       	std	Y+1, r17	; 0x01
    216c:	08 83       	st	Y, r16
    216e:	c1 5a       	subi	r28, 0xA1	; 161
    2170:	d1 40       	sbci	r29, 0x01	; 1
    2172:	cf 52       	subi	r28, 0x2F	; 47
    2174:	de 4f       	sbci	r29, 0xFE	; 254
    2176:	99 83       	std	Y+1, r25	; 0x01
    2178:	88 83       	st	Y, r24
    217a:	c1 5d       	subi	r28, 0xD1	; 209
    217c:	d1 40       	sbci	r29, 0x01	; 1
    217e:	c5 51       	subi	r28, 0x15	; 21
    2180:	de 4f       	sbci	r29, 0xFE	; 254
    2182:	39 83       	std	Y+1, r19	; 0x01
    2184:	28 83       	st	Y, r18
    2186:	cb 5e       	subi	r28, 0xEB	; 235
    2188:	d1 40       	sbci	r29, 0x01	; 1
    218a:	c1 51       	subi	r28, 0x11	; 17
    218c:	de 4f       	sbci	r29, 0xFE	; 254
    218e:	f9 83       	std	Y+1, r31	; 0x01
    2190:	e8 83       	st	Y, r30
    2192:	cf 5e       	subi	r28, 0xEF	; 239
    2194:	d1 40       	sbci	r29, 0x01	; 1
    2196:	cd 5d       	subi	r28, 0xDD	; 221
    2198:	dd 4f       	sbci	r29, 0xFD	; 253
    219a:	99 83       	std	Y+1, r25	; 0x01
    219c:	88 83       	st	Y, r24
    219e:	c3 52       	subi	r28, 0x23	; 35
    21a0:	d2 40       	sbci	r29, 0x02	; 2
    21a2:	c3 5c       	subi	r28, 0xC3	; 195
    21a4:	dd 4f       	sbci	r29, 0xFD	; 253
    21a6:	f9 83       	std	Y+1, r31	; 0x01
    21a8:	e8 83       	st	Y, r30
    21aa:	cd 53       	subi	r28, 0x3D	; 61
    21ac:	d2 40       	sbci	r29, 0x02	; 2
    21ae:	61 e2       	ldi	r22, 0x21	; 33
    21b0:	70 e0       	ldi	r23, 0x00	; 0
    21b2:	cf 5b       	subi	r28, 0xBF	; 191
    21b4:	dd 4f       	sbci	r29, 0xFD	; 253
    21b6:	79 83       	std	Y+1, r23	; 0x01
    21b8:	68 83       	st	Y, r22
    21ba:	c1 54       	subi	r28, 0x41	; 65
    21bc:	d2 40       	sbci	r29, 0x02	; 2
    21be:	0f 2e       	mov	r0, r31
    21c0:	f8 e2       	ldi	r31, 0x28	; 40
    21c2:	cf 2e       	mov	r12, r31
    21c4:	d1 2c       	mov	r13, r1
    21c6:	f0 2d       	mov	r31, r0
    21c8:	c7 5a       	subi	r28, 0xA7	; 167
    21ca:	dd 4f       	sbci	r29, 0xFD	; 253
    21cc:	d9 82       	std	Y+1, r13	; 0x01
    21ce:	c8 82       	st	Y, r12
    21d0:	c9 55       	subi	r28, 0x59	; 89
    21d2:	d2 40       	sbci	r29, 0x02	; 2
    21d4:	c5 57       	subi	r28, 0x75	; 117
    21d6:	dd 4f       	sbci	r29, 0xFD	; 253
    21d8:	19 83       	std	Y+1, r17	; 0x01
    21da:	08 83       	st	Y, r16
    21dc:	cb 58       	subi	r28, 0x8B	; 139
    21de:	d2 40       	sbci	r29, 0x02	; 2
    21e0:	c1 57       	subi	r28, 0x71	; 113
    21e2:	dd 4f       	sbci	r29, 0xFD	; 253
    21e4:	79 83       	std	Y+1, r23	; 0x01
    21e6:	68 83       	st	Y, r22
    21e8:	cf 58       	subi	r28, 0x8F	; 143
    21ea:	d2 40       	sbci	r29, 0x02	; 2
    21ec:	aa e1       	ldi	r26, 0x1A	; 26
    21ee:	b0 e0       	ldi	r27, 0x00	; 0
    21f0:	cd 56       	subi	r28, 0x6D	; 109
    21f2:	dd 4f       	sbci	r29, 0xFD	; 253
    21f4:	b9 83       	std	Y+1, r27	; 0x01
    21f6:	a8 83       	st	Y, r26
    21f8:	c3 59       	subi	r28, 0x93	; 147
    21fa:	d2 40       	sbci	r29, 0x02	; 2
    21fc:	cf 51       	subi	r28, 0x1F	; 31
    21fe:	dd 4f       	sbci	r29, 0xFD	; 253
    2200:	b9 83       	std	Y+1, r27	; 0x01
    2202:	a8 83       	st	Y, r26
    2204:	c1 5e       	subi	r28, 0xE1	; 225
    2206:	d2 40       	sbci	r29, 0x02	; 2
    2208:	0f 2e       	mov	r0, r31
    220a:	fd e1       	ldi	r31, 0x1D	; 29
    220c:	ef 2e       	mov	r14, r31
    220e:	f1 2c       	mov	r15, r1
    2210:	f0 2d       	mov	r31, r0
    2212:	cb 51       	subi	r28, 0x1B	; 27
    2214:	dd 4f       	sbci	r29, 0xFD	; 253
    2216:	f9 82       	std	Y+1, r15	; 0x01
    2218:	e8 82       	st	Y, r14
    221a:	c5 5e       	subi	r28, 0xE5	; 229
    221c:	d2 40       	sbci	r29, 0x02	; 2
    221e:	21 e1       	ldi	r18, 0x11	; 17
    2220:	30 e0       	ldi	r19, 0x00	; 0
    2222:	cb 50       	subi	r28, 0x0B	; 11
    2224:	dd 4f       	sbci	r29, 0xFD	; 253
    2226:	39 83       	std	Y+1, r19	; 0x01
    2228:	28 83       	st	Y, r18
    222a:	c5 5f       	subi	r28, 0xF5	; 245
    222c:	d2 40       	sbci	r29, 0x02	; 2
    222e:	cd 5c       	subi	r28, 0xCD	; 205
    2230:	dc 4f       	sbci	r29, 0xFC	; 252
    2232:	f9 82       	std	Y+1, r15	; 0x01
    2234:	e8 82       	st	Y, r14
    2236:	c3 53       	subi	r28, 0x33	; 51
    2238:	d3 40       	sbci	r29, 0x03	; 3
    223a:	c9 5c       	subi	r28, 0xC9	; 201
    223c:	dc 4f       	sbci	r29, 0xFC	; 252
    223e:	f9 82       	std	Y+1, r15	; 0x01
    2240:	e8 82       	st	Y, r14
    2242:	c7 53       	subi	r28, 0x37	; 55
    2244:	d3 40       	sbci	r29, 0x03	; 3
    2246:	0f 2e       	mov	r0, r31
    2248:	f9 e1       	ldi	r31, 0x19	; 25
    224a:	af 2e       	mov	r10, r31
    224c:	b1 2c       	mov	r11, r1
    224e:	f0 2d       	mov	r31, r0
    2250:	c9 5a       	subi	r28, 0xA9	; 169
    2252:	dc 4f       	sbci	r29, 0xFC	; 252
    2254:	b9 82       	std	Y+1, r11	; 0x01
    2256:	a8 82       	st	Y, r10
    2258:	c7 55       	subi	r28, 0x57	; 87
    225a:	d3 40       	sbci	r29, 0x03	; 3
    225c:	cb 57       	subi	r28, 0x7B	; 123
    225e:	dc 4f       	sbci	r29, 0xFC	; 252
    2260:	f9 82       	std	Y+1, r15	; 0x01
    2262:	e8 82       	st	Y, r14
    2264:	c5 58       	subi	r28, 0x85	; 133
    2266:	d3 40       	sbci	r29, 0x03	; 3
    2268:	c7 57       	subi	r28, 0x77	; 119
    226a:	dc 4f       	sbci	r29, 0xFC	; 252
    226c:	b9 83       	std	Y+1, r27	; 0x01
    226e:	a8 83       	st	Y, r26
    2270:	c9 58       	subi	r28, 0x89	; 137
    2272:	d3 40       	sbci	r29, 0x03	; 3
    2274:	cf 56       	subi	r28, 0x6F	; 111
    2276:	dc 4f       	sbci	r29, 0xFC	; 252
    2278:	39 83       	std	Y+1, r19	; 0x01
    227a:	28 83       	st	Y, r18
    227c:	c1 59       	subi	r28, 0x91	; 145
    227e:	d3 40       	sbci	r29, 0x03	; 3
    2280:	cd 53       	subi	r28, 0x3D	; 61
    2282:	dc 4f       	sbci	r29, 0xFC	; 252
    2284:	19 83       	std	Y+1, r17	; 0x01
    2286:	08 83       	st	Y, r16
    2288:	c3 5c       	subi	r28, 0xC3	; 195
    228a:	d3 40       	sbci	r29, 0x03	; 3
    228c:	c9 52       	subi	r28, 0x29	; 41
    228e:	dc 4f       	sbci	r29, 0xFC	; 252
    2290:	b9 83       	std	Y+1, r27	; 0x01
    2292:	a8 83       	st	Y, r26
    2294:	c7 5d       	subi	r28, 0xD7	; 215
    2296:	d3 40       	sbci	r29, 0x03	; 3
    2298:	c5 52       	subi	r28, 0x25	; 37
    229a:	dc 4f       	sbci	r29, 0xFC	; 252
    229c:	79 83       	std	Y+1, r23	; 0x01
    229e:	68 83       	st	Y, r22
    22a0:	cb 5d       	subi	r28, 0xDB	; 219
    22a2:	d3 40       	sbci	r29, 0x03	; 3
    22a4:	cf 5e       	subi	r28, 0xEF	; 239
    22a6:	db 4f       	sbci	r29, 0xFB	; 251
    22a8:	f9 83       	std	Y+1, r31	; 0x01
    22aa:	e8 83       	st	Y, r30
    22ac:	c1 51       	subi	r28, 0x11	; 17
    22ae:	d4 40       	sbci	r29, 0x04	; 4
    22b0:	c7 5d       	subi	r28, 0xD7	; 215
    22b2:	db 4f       	sbci	r29, 0xFB	; 251
    22b4:	79 83       	std	Y+1, r23	; 0x01
    22b6:	68 83       	st	Y, r22
    22b8:	c9 52       	subi	r28, 0x29	; 41
    22ba:	d4 40       	sbci	r29, 0x04	; 4
    22bc:	67 e1       	ldi	r22, 0x17	; 23
    22be:	70 e0       	ldi	r23, 0x00	; 0
    22c0:	c1 58       	subi	r28, 0x81	; 129
    22c2:	db 4f       	sbci	r29, 0xFB	; 251
    22c4:	79 83       	std	Y+1, r23	; 0x01
    22c6:	68 83       	st	Y, r22
    22c8:	cf 57       	subi	r28, 0x7F	; 127
    22ca:	d4 40       	sbci	r29, 0x04	; 4
    22cc:	c3 57       	subi	r28, 0x73	; 115
    22ce:	db 4f       	sbci	r29, 0xFB	; 251
    22d0:	39 83       	std	Y+1, r19	; 0x01
    22d2:	28 83       	st	Y, r18
    22d4:	cd 58       	subi	r28, 0x8D	; 141
    22d6:	d4 40       	sbci	r29, 0x04	; 4
    22d8:	c3 53       	subi	r28, 0x33	; 51
    22da:	db 4f       	sbci	r29, 0xFB	; 251
    22dc:	79 83       	std	Y+1, r23	; 0x01
    22de:	68 83       	st	Y, r22
    22e0:	cd 5c       	subi	r28, 0xCD	; 205
    22e2:	d4 40       	sbci	r29, 0x04	; 4
    22e4:	cf 52       	subi	r28, 0x2F	; 47
    22e6:	db 4f       	sbci	r29, 0xFB	; 251
    22e8:	59 83       	std	Y+1, r21	; 0x01
    22ea:	48 83       	st	Y, r20
    22ec:	c1 5d       	subi	r28, 0xD1	; 209
    22ee:	d4 40       	sbci	r29, 0x04	; 4
    22f0:	c9 50       	subi	r28, 0x09	; 9
    22f2:	db 4f       	sbci	r29, 0xFB	; 251
    22f4:	99 83       	std	Y+1, r25	; 0x01
    22f6:	88 83       	st	Y, r24
    22f8:	c7 5f       	subi	r28, 0xF7	; 247
    22fa:	d4 40       	sbci	r29, 0x04	; 4
    22fc:	c9 5e       	subi	r28, 0xE9	; 233
    22fe:	da 4f       	sbci	r29, 0xFA	; 250
    2300:	39 83       	std	Y+1, r19	; 0x01
    2302:	28 83       	st	Y, r18
    2304:	c7 51       	subi	r28, 0x17	; 23
    2306:	d5 40       	sbci	r29, 0x05	; 5
    2308:	c1 5e       	subi	r28, 0xE1	; 225
    230a:	da 4f       	sbci	r29, 0xFA	; 250
    230c:	59 83       	std	Y+1, r21	; 0x01
    230e:	48 83       	st	Y, r20
    2310:	cf 51       	subi	r28, 0x1F	; 31
    2312:	d5 40       	sbci	r29, 0x05	; 5
    2314:	e2 e3       	ldi	r30, 0x32	; 50
    2316:	f0 e0       	ldi	r31, 0x00	; 0
    2318:	cd 5d       	subi	r28, 0xDD	; 221
    231a:	da 4f       	sbci	r29, 0xFA	; 250
    231c:	f9 83       	std	Y+1, r31	; 0x01
    231e:	e8 83       	st	Y, r30
    2320:	c3 52       	subi	r28, 0x23	; 35
    2322:	d5 40       	sbci	r29, 0x05	; 5
    2324:	cf 58       	subi	r28, 0x8F	; 143
    2326:	da 4f       	sbci	r29, 0xFA	; 250
    2328:	f9 83       	std	Y+1, r31	; 0x01
    232a:	e8 83       	st	Y, r30
    232c:	c1 57       	subi	r28, 0x71	; 113
    232e:	d5 40       	sbci	r29, 0x05	; 5
    2330:	cb 58       	subi	r28, 0x8B	; 139
    2332:	da 4f       	sbci	r29, 0xFA	; 250
    2334:	f9 83       	std	Y+1, r31	; 0x01
    2336:	e8 83       	st	Y, r30
    2338:	c5 57       	subi	r28, 0x75	; 117
    233a:	d5 40       	sbci	r29, 0x05	; 5
    233c:	65 e2       	ldi	r22, 0x25	; 37
    233e:	70 e0       	ldi	r23, 0x00	; 0
    2340:	c1 58       	subi	r28, 0x81	; 129
    2342:	da 4f       	sbci	r29, 0xFA	; 250
    2344:	79 83       	std	Y+1, r23	; 0x01
    2346:	68 83       	st	Y, r22
    2348:	cf 57       	subi	r28, 0x7F	; 127
    234a:	d5 40       	sbci	r29, 0x05	; 5
    234c:	cd 54       	subi	r28, 0x4D	; 77
    234e:	da 4f       	sbci	r29, 0xFA	; 250
    2350:	39 83       	std	Y+1, r19	; 0x01
    2352:	28 83       	st	Y, r18
    2354:	c3 5b       	subi	r28, 0xB3	; 179
    2356:	d5 40       	sbci	r29, 0x05	; 5
    2358:	cd 53       	subi	r28, 0x3D	; 61
    235a:	da 4f       	sbci	r29, 0xFA	; 250
    235c:	f9 83       	std	Y+1, r31	; 0x01
    235e:	e8 83       	st	Y, r30
    2360:	c3 5c       	subi	r28, 0xC3	; 195
    2362:	d5 40       	sbci	r29, 0x05	; 5
    2364:	c9 53       	subi	r28, 0x39	; 57
    2366:	da 4f       	sbci	r29, 0xFA	; 250
    2368:	59 83       	std	Y+1, r21	; 0x01
    236a:	48 83       	st	Y, r20
    236c:	c7 5c       	subi	r28, 0xC7	; 199
    236e:	d5 40       	sbci	r29, 0x05	; 5
    2370:	cb 5e       	subi	r28, 0xEB	; 235
    2372:	d9 4f       	sbci	r29, 0xF9	; 249
    2374:	59 83       	std	Y+1, r21	; 0x01
    2376:	48 83       	st	Y, r20
    2378:	c5 51       	subi	r28, 0x15	; 21
    237a:	d6 40       	sbci	r29, 0x06	; 6
    237c:	c7 5c       	subi	r28, 0xC7	; 199
    237e:	d9 4f       	sbci	r29, 0xF9	; 249
    2380:	99 83       	std	Y+1, r25	; 0x01
    2382:	88 83       	st	Y, r24
    2384:	c9 53       	subi	r28, 0x39	; 57
    2386:	d6 40       	sbci	r29, 0x06	; 6
    2388:	c1 5b       	subi	r28, 0xB1	; 177
    238a:	d9 4f       	sbci	r29, 0xF9	; 249
    238c:	d9 82       	std	Y+1, r13	; 0x01
    238e:	c8 82       	st	Y, r12
    2390:	cf 54       	subi	r28, 0x4F	; 79
    2392:	d6 40       	sbci	r29, 0x06	; 6
    2394:	c5 59       	subi	r28, 0x95	; 149
    2396:	d9 4f       	sbci	r29, 0xF9	; 249
    2398:	39 83       	std	Y+1, r19	; 0x01
    239a:	28 83       	st	Y, r18
    239c:	cb 56       	subi	r28, 0x6B	; 107
    239e:	d6 40       	sbci	r29, 0x06	; 6
    23a0:	c7 54       	subi	r28, 0x47	; 71
    23a2:	d9 4f       	sbci	r29, 0xF9	; 249
    23a4:	39 83       	std	Y+1, r19	; 0x01
    23a6:	28 83       	st	Y, r18
    23a8:	c9 5b       	subi	r28, 0xB9	; 185
    23aa:	d6 40       	sbci	r29, 0x06	; 6
    23ac:	c5 52       	subi	r28, 0x25	; 37
    23ae:	d9 4f       	sbci	r29, 0xF9	; 249
    23b0:	99 83       	std	Y+1, r25	; 0x01
    23b2:	88 83       	st	Y, r24
    23b4:	cb 5d       	subi	r28, 0xDB	; 219
    23b6:	d6 40       	sbci	r29, 0x06	; 6
    23b8:	c3 50       	subi	r28, 0x03	; 3
    23ba:	d9 4f       	sbci	r29, 0xF9	; 249
    23bc:	39 83       	std	Y+1, r19	; 0x01
    23be:	28 83       	st	Y, r18
    23c0:	cd 5f       	subi	r28, 0xFD	; 253
    23c2:	d6 40       	sbci	r29, 0x06	; 6
    23c4:	cb 5d       	subi	r28, 0xDB	; 219
    23c6:	d8 4f       	sbci	r29, 0xF8	; 248
    23c8:	99 83       	std	Y+1, r25	; 0x01
    23ca:	88 83       	st	Y, r24
    23cc:	c5 52       	subi	r28, 0x25	; 37
    23ce:	d7 40       	sbci	r29, 0x07	; 7
    23d0:	cd 5a       	subi	r28, 0xAD	; 173
    23d2:	d8 4f       	sbci	r29, 0xF8	; 248
    23d4:	79 83       	std	Y+1, r23	; 0x01
    23d6:	68 83       	st	Y, r22
    23d8:	c3 55       	subi	r28, 0x53	; 83
    23da:	d7 40       	sbci	r29, 0x07	; 7
    23dc:	cf 59       	subi	r28, 0x9F	; 159
    23de:	d8 4f       	sbci	r29, 0xF8	; 248
    23e0:	79 83       	std	Y+1, r23	; 0x01
    23e2:	68 83       	st	Y, r22
    23e4:	c1 56       	subi	r28, 0x61	; 97
    23e6:	d7 40       	sbci	r29, 0x07	; 7
    23e8:	c1 55       	subi	r28, 0x51	; 81
    23ea:	d8 4f       	sbci	r29, 0xF8	; 248
    23ec:	79 83       	std	Y+1, r23	; 0x01
    23ee:	68 83       	st	Y, r22
    23f0:	cf 5a       	subi	r28, 0xAF	; 175
    23f2:	d7 40       	sbci	r29, 0x07	; 7
    23f4:	2c e3       	ldi	r18, 0x3C	; 60
    23f6:	30 e0       	ldi	r19, 0x00	; 0
    23f8:	cd 54       	subi	r28, 0x4D	; 77
    23fa:	d8 4f       	sbci	r29, 0xF8	; 248
    23fc:	39 83       	std	Y+1, r19	; 0x01
    23fe:	28 83       	st	Y, r18
    2400:	c3 5b       	subi	r28, 0xB3	; 179
    2402:	d7 40       	sbci	r29, 0x07	; 7
    2404:	cb 54       	subi	r28, 0x4B	; 75
    2406:	d8 4f       	sbci	r29, 0xF8	; 248
    2408:	39 83       	std	Y+1, r19	; 0x01
    240a:	28 83       	st	Y, r18
    240c:	c5 5b       	subi	r28, 0xB5	; 181
    240e:	d7 40       	sbci	r29, 0x07	; 7
    2410:	cf 5f       	subi	r28, 0xFF	; 255
    2412:	d7 4f       	sbci	r29, 0xF7	; 247
    2414:	39 83       	std	Y+1, r19	; 0x01
    2416:	28 83       	st	Y, r18
    2418:	c1 50       	subi	r28, 0x01	; 1
    241a:	d8 40       	sbci	r29, 0x08	; 8
    241c:	c3 5e       	subi	r28, 0xE3	; 227
    241e:	d7 4f       	sbci	r29, 0xF7	; 247
    2420:	99 83       	std	Y+1, r25	; 0x01
    2422:	88 83       	st	Y, r24
    2424:	cd 51       	subi	r28, 0x1D	; 29
    2426:	d8 40       	sbci	r29, 0x08	; 8
    2428:	cf 5a       	subi	r28, 0xAF	; 175
    242a:	d7 4f       	sbci	r29, 0xF7	; 247
    242c:	39 83       	std	Y+1, r19	; 0x01
    242e:	28 83       	st	Y, r18
    2430:	c1 55       	subi	r28, 0x51	; 81
    2432:	d8 40       	sbci	r29, 0x08	; 8
    2434:	c1 59       	subi	r28, 0x91	; 145
    2436:	d7 4f       	sbci	r29, 0xF7	; 247
    2438:	99 83       	std	Y+1, r25	; 0x01
    243a:	88 83       	st	Y, r24
    243c:	cf 56       	subi	r28, 0x6F	; 111
    243e:	d8 40       	sbci	r29, 0x08	; 8
    2440:	cb 57       	subi	r28, 0x7B	; 123
    2442:	d7 4f       	sbci	r29, 0xF7	; 247
    2444:	b9 82       	std	Y+1, r11	; 0x01
    2446:	a8 82       	st	Y, r10
    2448:	c5 58       	subi	r28, 0x85	; 133
    244a:	d8 40       	sbci	r29, 0x08	; 8
    244c:	cf 53       	subi	r28, 0x3F	; 63
    244e:	d7 4f       	sbci	r29, 0xF7	; 247
    2450:	99 83       	std	Y+1, r25	; 0x01
    2452:	88 83       	st	Y, r24
    2454:	c1 5c       	subi	r28, 0xC1	; 193
    2456:	d8 40       	sbci	r29, 0x08	; 8
    2458:	cd 5e       	subi	r28, 0xED	; 237
    245a:	d6 4f       	sbci	r29, 0xF6	; 246
    245c:	99 83       	std	Y+1, r25	; 0x01
    245e:	88 83       	st	Y, r24
    2460:	c3 51       	subi	r28, 0x13	; 19
    2462:	d9 40       	sbci	r29, 0x09	; 9
    2464:	cb 59       	subi	r28, 0x9B	; 155
    2466:	d6 4f       	sbci	r29, 0xF6	; 246
    2468:	99 83       	std	Y+1, r25	; 0x01
    246a:	88 83       	st	Y, r24
    246c:	c5 56       	subi	r28, 0x65	; 101
    246e:	d9 40       	sbci	r29, 0x09	; 9
    2470:	c7 54       	subi	r28, 0x47	; 71
    2472:	d6 4f       	sbci	r29, 0xF6	; 246
    2474:	99 83       	std	Y+1, r25	; 0x01
    2476:	88 83       	st	Y, r24
    2478:	c9 5b       	subi	r28, 0xB9	; 185
    247a:	d9 40       	sbci	r29, 0x09	; 9
    247c:	c5 5f       	subi	r28, 0xF5	; 245
    247e:	d5 4f       	sbci	r29, 0xF5	; 245
    2480:	99 83       	std	Y+1, r25	; 0x01
    2482:	88 83       	st	Y, r24
    2484:	cb 50       	subi	r28, 0x0B	; 11
    2486:	da 40       	sbci	r29, 0x0A	; 10
    2488:	c3 5a       	subi	r28, 0xA3	; 163
    248a:	d5 4f       	sbci	r29, 0xF5	; 245
    248c:	99 83       	std	Y+1, r25	; 0x01
    248e:	88 83       	st	Y, r24
    2490:	cd 55       	subi	r28, 0x5D	; 93
    2492:	da 40       	sbci	r29, 0x0A	; 10
    2494:	c3 53       	subi	r28, 0x33	; 51
    2496:	d5 4f       	sbci	r29, 0xF5	; 245
    2498:	99 83       	std	Y+1, r25	; 0x01
    249a:	88 83       	st	Y, r24
    249c:	cd 5c       	subi	r28, 0xCD	; 205
    249e:	da 40       	sbci	r29, 0x0A	; 10
    24a0:	c1 5f       	subi	r28, 0xF1	; 241
    24a2:	d4 4f       	sbci	r29, 0xF4	; 244
    24a4:	99 83       	std	Y+1, r25	; 0x01
    24a6:	88 83       	st	Y, r24
    24a8:	cf 50       	subi	r28, 0x0F	; 15
    24aa:	db 40       	sbci	r29, 0x0B	; 11
    24ac:	c9 59       	subi	r28, 0x99	; 153
    24ae:	d4 4f       	sbci	r29, 0xF4	; 244
    24b0:	99 83       	std	Y+1, r25	; 0x01
    24b2:	88 83       	st	Y, r24
    24b4:	c7 56       	subi	r28, 0x67	; 103
    24b6:	db 40       	sbci	r29, 0x0B	; 11
    24b8:	c5 54       	subi	r28, 0x45	; 69
    24ba:	d4 4f       	sbci	r29, 0xF4	; 244
    24bc:	99 83       	std	Y+1, r25	; 0x01
    24be:	88 83       	st	Y, r24
    24c0:	cb 5b       	subi	r28, 0xBB	; 187
    24c2:	db 40       	sbci	r29, 0x0B	; 11
    24c4:	cd 5e       	subi	r28, 0xED	; 237
    24c6:	d3 4f       	sbci	r29, 0xF3	; 243
    24c8:	99 83       	std	Y+1, r25	; 0x01
    24ca:	88 83       	st	Y, r24
    24cc:	c3 51       	subi	r28, 0x13	; 19
    24ce:	dc 40       	sbci	r29, 0x0C	; 12
    24d0:	cb 59       	subi	r28, 0x9B	; 155
    24d2:	d3 4f       	sbci	r29, 0xF3	; 243
    24d4:	99 83       	std	Y+1, r25	; 0x01
    24d6:	88 83       	st	Y, r24
    24d8:	c5 56       	subi	r28, 0x65	; 101
    24da:	dc 40       	sbci	r29, 0x0C	; 12
    24dc:	c7 5e       	subi	r28, 0xE7	; 231
    24de:	d9 4f       	sbci	r29, 0xF9	; 249
    24e0:	19 82       	std	Y+1, r1	; 0x01
    24e2:	18 82       	st	Y, r1
    24e4:	c9 51       	subi	r28, 0x19	; 25
    24e6:	d6 40       	sbci	r29, 0x06	; 6
    24e8:	c9 59       	subi	r28, 0x99	; 153
    24ea:	d9 4f       	sbci	r29, 0xF9	; 249
    24ec:	19 82       	std	Y+1, r1	; 0x01
    24ee:	18 82       	st	Y, r1
    24f0:	c7 56       	subi	r28, 0x67	; 103
    24f2:	d6 40       	sbci	r29, 0x06	; 6
    24f4:	c9 5d       	subi	r28, 0xD9	; 217
    24f6:	dc 4f       	sbci	r29, 0xFC	; 252
    24f8:	19 82       	std	Y+1, r1	; 0x01
    24fa:	18 82       	st	Y, r1
    24fc:	c7 52       	subi	r28, 0x27	; 39
    24fe:	d3 40       	sbci	r29, 0x03	; 3
    2500:	cb 5f       	subi	r28, 0xFB	; 251
    2502:	de 4f       	sbci	r29, 0xFE	; 254
    2504:	19 82       	std	Y+1, r1	; 0x01
    2506:	18 82       	st	Y, r1
    2508:	c5 50       	subi	r28, 0x05	; 5
    250a:	d1 40       	sbci	r29, 0x01	; 1
    250c:	c3 5d       	subi	r28, 0xD3	; 211
    250e:	db 4f       	sbci	r29, 0xFB	; 251
    2510:	19 82       	std	Y+1, r1	; 0x01
    2512:	18 82       	st	Y, r1
    2514:	cd 52       	subi	r28, 0x2D	; 45
    2516:	d4 40       	sbci	r29, 0x04	; 4
    2518:	c5 58       	subi	r28, 0x85	; 133
    251a:	db 4f       	sbci	r29, 0xFB	; 251
    251c:	19 82       	std	Y+1, r1	; 0x01
    251e:	18 82       	st	Y, r1
    2520:	cb 57       	subi	r28, 0x7B	; 123
    2522:	d4 40       	sbci	r29, 0x04	; 4
    2524:	a2 01       	movw	r20, r4
    2526:	b3 01       	movw	r22, r6
    2528:	c4 01       	movw	r24, r8
    252a:	a0 dc       	rcall	.-1728   	; 0x1e6c <dijkstra>
    252c:	c0 58       	subi	r28, 0x80	; 128
    252e:	d3 4f       	sbci	r29, 0xF3	; 243
    2530:	0f b6       	in	r0, 0x3f	; 63
    2532:	f8 94       	cli
    2534:	de bf       	out	0x3e, r29	; 62
    2536:	0f be       	out	0x3f, r0	; 63
    2538:	cd bf       	out	0x3d, r28	; 61
    253a:	df 91       	pop	r29
    253c:	cf 91       	pop	r28
    253e:	1f 91       	pop	r17
    2540:	0f 91       	pop	r16
    2542:	ff 90       	pop	r15
    2544:	ef 90       	pop	r14
    2546:	df 90       	pop	r13
    2548:	cf 90       	pop	r12
    254a:	bf 90       	pop	r11
    254c:	af 90       	pop	r10
    254e:	9f 90       	pop	r9
    2550:	8f 90       	pop	r8
    2552:	7f 90       	pop	r7
    2554:	6f 90       	pop	r6
    2556:	5f 90       	pop	r5
    2558:	4f 90       	pop	r4
    255a:	08 95       	ret

0000255c <check_path>:
    255c:	6f 92       	push	r6
    255e:	7f 92       	push	r7
    2560:	8f 92       	push	r8
    2562:	9f 92       	push	r9
    2564:	af 92       	push	r10
    2566:	bf 92       	push	r11
    2568:	cf 92       	push	r12
    256a:	df 92       	push	r13
    256c:	ef 92       	push	r14
    256e:	ff 92       	push	r15
    2570:	0f 93       	push	r16
    2572:	1f 93       	push	r17
    2574:	cf 93       	push	r28
    2576:	df 93       	push	r29
    2578:	80 91 6e 02 	lds	r24, 0x026E	; 0x80026e <sizepath>
    257c:	90 91 6f 02 	lds	r25, 0x026F	; 0x80026f <sizepath+0x1>
    2580:	01 97       	sbiw	r24, 0x01	; 1
    2582:	09 f4       	brne	.+2      	; 0x2586 <check_path+0x2a>
    2584:	4b c0       	rjmp	.+150    	; 0x261c <check_path+0xc0>
    2586:	0f 2e       	mov	r0, r31
    2588:	f5 e7       	ldi	r31, 0x75	; 117
    258a:	8f 2e       	mov	r8, r31
    258c:	f2 e0       	ldi	r31, 0x02	; 2
    258e:	9f 2e       	mov	r9, r31
    2590:	f0 2d       	mov	r31, r0
    2592:	ee 24       	eor	r14, r14
    2594:	e3 94       	inc	r14
    2596:	f1 2c       	mov	r15, r1
    2598:	c0 e0       	ldi	r28, 0x00	; 0
    259a:	d0 e0       	ldi	r29, 0x00	; 0
    259c:	0f 2e       	mov	r0, r31
    259e:	f5 e2       	ldi	r31, 0x25	; 37
    25a0:	6f 2e       	mov	r6, r31
    25a2:	f2 e0       	ldi	r31, 0x02	; 2
    25a4:	7f 2e       	mov	r7, r31
    25a6:	f0 2d       	mov	r31, r0
    25a8:	67 01       	movw	r12, r14
    25aa:	81 e0       	ldi	r24, 0x01	; 1
    25ac:	c8 1a       	sub	r12, r24
    25ae:	d1 08       	sbc	r13, r1
    25b0:	84 01       	movw	r16, r8
    25b2:	f4 01       	movw	r30, r8
    25b4:	42 81       	ldd	r20, Z+2	; 0x02
    25b6:	53 81       	ldd	r21, Z+3	; 0x03
    25b8:	61 91       	ld	r22, Z+
    25ba:	71 91       	ld	r23, Z+
    25bc:	4f 01       	movw	r8, r30
    25be:	cc 0f       	add	r28, r28
    25c0:	dd 1f       	adc	r29, r29
    25c2:	cb 58       	subi	r28, 0x8B	; 139
    25c4:	dd 4f       	sbci	r29, 0xFD	; 253
    25c6:	88 81       	ld	r24, Y
    25c8:	99 81       	ldd	r25, Y+1	; 0x01
    25ca:	0e 94 8d 04 	call	0x91a	; 0x91a <check_condition>
    25ce:	5c 01       	movw	r10, r24
    25d0:	f8 01       	movw	r30, r16
    25d2:	83 81       	ldd	r24, Z+3	; 0x03
    25d4:	8f 93       	push	r24
    25d6:	82 81       	ldd	r24, Z+2	; 0x02
    25d8:	8f 93       	push	r24
    25da:	81 81       	ldd	r24, Z+1	; 0x01
    25dc:	8f 93       	push	r24
    25de:	80 81       	ld	r24, Z
    25e0:	8f 93       	push	r24
    25e2:	89 81       	ldd	r24, Y+1	; 0x01
    25e4:	8f 93       	push	r24
    25e6:	88 81       	ld	r24, Y
    25e8:	8f 93       	push	r24
    25ea:	7f 92       	push	r7
    25ec:	6f 92       	push	r6
    25ee:	0e 94 83 1b 	call	0x3706	; 0x3706 <printf>
    25f2:	ff ef       	ldi	r31, 0xFF	; 255
    25f4:	ef 1a       	sub	r14, r31
    25f6:	ff 0a       	sbc	r15, r31
    25f8:	c5 01       	movw	r24, r10
    25fa:	ae db       	rcall	.-2212   	; 0x1d58 <pushp>
    25fc:	e6 01       	movw	r28, r12
    25fe:	8d b7       	in	r24, 0x3d	; 61
    2600:	9e b7       	in	r25, 0x3e	; 62
    2602:	08 96       	adiw	r24, 0x08	; 8
    2604:	0f b6       	in	r0, 0x3f	; 63
    2606:	f8 94       	cli
    2608:	9e bf       	out	0x3e, r25	; 62
    260a:	0f be       	out	0x3f, r0	; 63
    260c:	8d bf       	out	0x3d, r24	; 61
    260e:	80 91 6e 02 	lds	r24, 0x026E	; 0x80026e <sizepath>
    2612:	90 91 6f 02 	lds	r25, 0x026F	; 0x80026f <sizepath+0x1>
    2616:	8e 15       	cp	r24, r14
    2618:	9f 05       	cpc	r25, r15
    261a:	31 f6       	brne	.-116    	; 0x25a8 <check_path+0x4c>
    261c:	df 91       	pop	r29
    261e:	cf 91       	pop	r28
    2620:	1f 91       	pop	r17
    2622:	0f 91       	pop	r16
    2624:	ff 90       	pop	r15
    2626:	ef 90       	pop	r14
    2628:	df 90       	pop	r13
    262a:	cf 90       	pop	r12
    262c:	bf 90       	pop	r11
    262e:	af 90       	pop	r10
    2630:	9f 90       	pop	r9
    2632:	8f 90       	pop	r8
    2634:	7f 90       	pop	r7
    2636:	6f 90       	pop	r6
    2638:	08 95       	ret

0000263a <find_size_of_bot>:
    263a:	10 92 6d 02 	sts	0x026D, r1	; 0x80026d <sizebot+0x1>
    263e:	10 92 6c 02 	sts	0x026C, r1	; 0x80026c <sizebot>
    2642:	80 91 18 03 	lds	r24, 0x0318	; 0x800318 <bot>
    2646:	90 91 19 03 	lds	r25, 0x0319	; 0x800319 <bot+0x1>
    264a:	89 31       	cpi	r24, 0x19	; 25
    264c:	9c 4f       	sbci	r25, 0xFC	; 252
    264e:	f1 f4       	brne	.+60     	; 0x268c <find_size_of_bot+0x52>
    2650:	0c c0       	rjmp	.+24     	; 0x266a <find_size_of_bot+0x30>
    2652:	58 2f       	mov	r21, r24
    2654:	49 2f       	mov	r20, r25
    2656:	21 91       	ld	r18, Z+
    2658:	31 91       	ld	r19, Z+
    265a:	01 96       	adiw	r24, 0x01	; 1
    265c:	29 31       	cpi	r18, 0x19	; 25
    265e:	3c 4f       	sbci	r19, 0xFC	; 252
    2660:	c1 f7       	brne	.-16     	; 0x2652 <find_size_of_bot+0x18>
    2662:	50 93 6c 02 	sts	0x026C, r21	; 0x80026c <sizebot>
    2666:	40 93 6d 02 	sts	0x026D, r20	; 0x80026d <sizebot+0x1>
    266a:	80 91 6d 02 	lds	r24, 0x026D	; 0x80026d <sizebot+0x1>
    266e:	8f 93       	push	r24
    2670:	80 91 6c 02 	lds	r24, 0x026C	; 0x80026c <sizebot>
    2674:	8f 93       	push	r24
    2676:	82 e3       	ldi	r24, 0x32	; 50
    2678:	92 e0       	ldi	r25, 0x02	; 2
    267a:	9f 93       	push	r25
    267c:	8f 93       	push	r24
    267e:	0e 94 83 1b 	call	0x3706	; 0x3706 <printf>
    2682:	0f 90       	pop	r0
    2684:	0f 90       	pop	r0
    2686:	0f 90       	pop	r0
    2688:	0f 90       	pop	r0
    268a:	08 95       	ret
    268c:	ea e1       	ldi	r30, 0x1A	; 26
    268e:	f3 e0       	ldi	r31, 0x03	; 3
    2690:	81 e0       	ldi	r24, 0x01	; 1
    2692:	90 e0       	ldi	r25, 0x00	; 0
    2694:	de cf       	rjmp	.-68     	; 0x2652 <find_size_of_bot+0x18>

00002696 <find_size_of_path>:
    2696:	10 92 6f 02 	sts	0x026F, r1	; 0x80026f <sizepath+0x1>
    269a:	10 92 6e 02 	sts	0x026E, r1	; 0x80026e <sizepath>
    269e:	80 91 75 02 	lds	r24, 0x0275	; 0x800275 <path>
    26a2:	90 91 76 02 	lds	r25, 0x0276	; 0x800276 <path+0x1>
    26a6:	89 31       	cpi	r24, 0x19	; 25
    26a8:	9c 4f       	sbci	r25, 0xFC	; 252
    26aa:	21 f5       	brne	.+72     	; 0x26f4 <find_size_of_path+0x5e>
    26ac:	12 c0       	rjmp	.+36     	; 0x26d2 <find_size_of_path+0x3c>
    26ae:	21 91       	ld	r18, Z+
    26b0:	31 91       	ld	r19, Z+
    26b2:	29 31       	cpi	r18, 0x19	; 25
    26b4:	3c 4f       	sbci	r19, 0xFC	; 252
    26b6:	29 f4       	brne	.+10     	; 0x26c2 <find_size_of_path+0x2c>
    26b8:	90 93 6f 02 	sts	0x026F, r25	; 0x80026f <sizepath+0x1>
    26bc:	80 93 6e 02 	sts	0x026E, r24	; 0x80026e <sizepath>
    26c0:	08 c0       	rjmp	.+16     	; 0x26d2 <find_size_of_path+0x3c>
    26c2:	01 96       	adiw	r24, 0x01	; 1
    26c4:	e4 17       	cp	r30, r20
    26c6:	f5 07       	cpc	r31, r21
    26c8:	91 f7       	brne	.-28     	; 0x26ae <find_size_of_path+0x18>
    26ca:	90 93 6f 02 	sts	0x026F, r25	; 0x80026f <sizepath+0x1>
    26ce:	80 93 6e 02 	sts	0x026E, r24	; 0x80026e <sizepath>
    26d2:	80 91 6f 02 	lds	r24, 0x026F	; 0x80026f <sizepath+0x1>
    26d6:	8f 93       	push	r24
    26d8:	80 91 6e 02 	lds	r24, 0x026E	; 0x80026e <sizepath>
    26dc:	8f 93       	push	r24
    26de:	82 e4       	ldi	r24, 0x42	; 66
    26e0:	92 e0       	ldi	r25, 0x02	; 2
    26e2:	9f 93       	push	r25
    26e4:	8f 93       	push	r24
    26e6:	0e 94 83 1b 	call	0x3706	; 0x3706 <printf>
    26ea:	0f 90       	pop	r0
    26ec:	0f 90       	pop	r0
    26ee:	0f 90       	pop	r0
    26f0:	0f 90       	pop	r0
    26f2:	08 95       	ret
    26f4:	e7 e7       	ldi	r30, 0x77	; 119
    26f6:	f2 e0       	ldi	r31, 0x02	; 2
    26f8:	45 ec       	ldi	r20, 0xC5	; 197
    26fa:	52 e0       	ldi	r21, 0x02	; 2
    26fc:	81 e0       	ldi	r24, 0x01	; 1
    26fe:	90 e0       	ldi	r25, 0x00	; 0
    2700:	d6 cf       	rjmp	.-84     	; 0x26ae <find_size_of_path+0x18>

00002702 <followpath>:
    2702:	8f 92       	push	r8
    2704:	9f 92       	push	r9
    2706:	af 92       	push	r10
    2708:	bf 92       	push	r11
    270a:	cf 92       	push	r12
    270c:	df 92       	push	r13
    270e:	ef 92       	push	r14
    2710:	ff 92       	push	r15
    2712:	0f 93       	push	r16
    2714:	1f 93       	push	r17
    2716:	cf 93       	push	r28
    2718:	df 93       	push	r29
    271a:	ec 01       	movw	r28, r24
    271c:	4b 01       	movw	r8, r22
    271e:	e4 da       	rcall	.-2616   	; 0x1ce8 <initialize>
    2720:	eb ec       	ldi	r30, 0xCB	; 203
    2722:	f2 e0       	ldi	r31, 0x02	; 2
    2724:	a2 84       	ldd	r10, Z+10	; 0x0a
    2726:	b3 84       	ldd	r11, Z+11	; 0x0b
    2728:	c0 84       	ldd	r12, Z+8	; 0x08
    272a:	d1 84       	ldd	r13, Z+9	; 0x09
    272c:	e6 80       	ldd	r14, Z+6	; 0x06
    272e:	f7 80       	ldd	r15, Z+7	; 0x07
    2730:	04 81       	ldd	r16, Z+4	; 0x04
    2732:	15 81       	ldd	r17, Z+5	; 0x05
    2734:	22 81       	ldd	r18, Z+2	; 0x02
    2736:	33 81       	ldd	r19, Z+3	; 0x03
    2738:	40 81       	ld	r20, Z
    273a:	51 81       	ldd	r21, Z+1	; 0x01
    273c:	b4 01       	movw	r22, r8
    273e:	ce 01       	movw	r24, r28
    2740:	74 dc       	rcall	.-1816   	; 0x202a <find_path>
    2742:	a9 df       	rcall	.-174    	; 0x2696 <find_size_of_path>
    2744:	0b df       	rcall	.-490    	; 0x255c <check_path>
    2746:	79 df       	rcall	.-270    	; 0x263a <find_size_of_bot>
    2748:	10 92 69 02 	sts	0x0269, r1	; 0x800269 <__data_end+0x1>
    274c:	10 92 68 02 	sts	0x0268, r1	; 0x800268 <__data_end>
    2750:	80 91 6c 02 	lds	r24, 0x026C	; 0x80026c <sizebot>
    2754:	90 91 6d 02 	lds	r25, 0x026D	; 0x80026d <sizebot+0x1>
    2758:	18 16       	cp	r1, r24
    275a:	19 06       	cpc	r1, r25
    275c:	0c f0       	brlt	.+2      	; 0x2760 <followpath+0x5e>
    275e:	78 c6       	rjmp	.+3312   	; 0x3450 <followpath+0xd4e>
    2760:	80 e0       	ldi	r24, 0x00	; 0
    2762:	90 e0       	ldi	r25, 0x00	; 0
    2764:	0f 2e       	mov	r0, r31
    2766:	f3 e5       	ldi	r31, 0x53	; 83
    2768:	cf 2e       	mov	r12, r31
    276a:	f2 e0       	ldi	r31, 0x02	; 2
    276c:	df 2e       	mov	r13, r31
    276e:	f0 2d       	mov	r31, r0
    2770:	0f 2e       	mov	r0, r31
    2772:	f8 e2       	ldi	r31, 0x28	; 40
    2774:	ef 2e       	mov	r14, r31
    2776:	ff 24       	eor	r15, r15
    2778:	f3 94       	inc	r15
    277a:	f0 2d       	mov	r31, r0
    277c:	bb 24       	eor	r11, r11
    277e:	ba 94       	dec	r11
    2780:	ca e2       	ldi	r28, 0x2A	; 42
    2782:	d1 e0       	ldi	r29, 0x01	; 1
    2784:	0f 2e       	mov	r0, r31
    2786:	f6 e9       	ldi	r31, 0x96	; 150
    2788:	af 2e       	mov	r10, r31
    278a:	f0 2d       	mov	r31, r0
    278c:	88 0f       	add	r24, r24
    278e:	99 1f       	adc	r25, r25
    2790:	fc 01       	movw	r30, r24
    2792:	ed 58       	subi	r30, 0x8D	; 141
    2794:	fd 4f       	sbci	r31, 0xFD	; 253
    2796:	20 81       	ld	r18, Z
    2798:	31 81       	ldd	r19, Z+1	; 0x01
    279a:	03 2e       	mov	r0, r19
    279c:	00 0c       	add	r0, r0
    279e:	44 0b       	sbc	r20, r20
    27a0:	55 0b       	sbc	r21, r21
    27a2:	02 e0       	ldi	r16, 0x02	; 2
    27a4:	10 e0       	ldi	r17, 0x00	; 0
    27a6:	64 e0       	ldi	r22, 0x04	; 4
    27a8:	82 e0       	ldi	r24, 0x02	; 2
    27aa:	0e 94 09 02 	call	0x412	; 0x412 <lcd_print>
    27ae:	e0 91 68 02 	lds	r30, 0x0268	; 0x800268 <__data_end>
    27b2:	f0 91 69 02 	lds	r31, 0x0269	; 0x800269 <__data_end+0x1>
    27b6:	ee 0f       	add	r30, r30
    27b8:	ff 1f       	adc	r31, r31
    27ba:	eb 58       	subi	r30, 0x8B	; 139
    27bc:	fd 4f       	sbci	r31, 0xFD	; 253
    27be:	20 81       	ld	r18, Z
    27c0:	31 81       	ldd	r19, Z+1	; 0x01
    27c2:	03 2e       	mov	r0, r19
    27c4:	00 0c       	add	r0, r0
    27c6:	44 0b       	sbc	r20, r20
    27c8:	55 0b       	sbc	r21, r21
    27ca:	68 e0       	ldi	r22, 0x08	; 8
    27cc:	82 e0       	ldi	r24, 0x02	; 2
    27ce:	0e 94 09 02 	call	0x412	; 0x412 <lcd_print>
    27d2:	e0 91 68 02 	lds	r30, 0x0268	; 0x800268 <__data_end>
    27d6:	f0 91 69 02 	lds	r31, 0x0269	; 0x800269 <__data_end+0x1>
    27da:	ee 0f       	add	r30, r30
    27dc:	ff 1f       	adc	r31, r31
    27de:	e9 58       	subi	r30, 0x89	; 137
    27e0:	fd 4f       	sbci	r31, 0xFD	; 253
    27e2:	20 81       	ld	r18, Z
    27e4:	31 81       	ldd	r19, Z+1	; 0x01
    27e6:	03 2e       	mov	r0, r19
    27e8:	00 0c       	add	r0, r0
    27ea:	44 0b       	sbc	r20, r20
    27ec:	55 0b       	sbc	r21, r21
    27ee:	6c e0       	ldi	r22, 0x0C	; 12
    27f0:	82 e0       	ldi	r24, 0x02	; 2
    27f2:	0e 94 09 02 	call	0x412	; 0x412 <lcd_print>
    27f6:	e0 91 68 02 	lds	r30, 0x0268	; 0x800268 <__data_end>
    27fa:	f0 91 69 02 	lds	r31, 0x0269	; 0x800269 <__data_end+0x1>
    27fe:	ee 0f       	add	r30, r30
    2800:	ff 1f       	adc	r31, r31
    2802:	ea 5e       	subi	r30, 0xEA	; 234
    2804:	fc 4f       	sbci	r31, 0xFC	; 252
    2806:	20 81       	ld	r18, Z
    2808:	31 81       	ldd	r19, Z+1	; 0x01
    280a:	03 2e       	mov	r0, r19
    280c:	00 0c       	add	r0, r0
    280e:	44 0b       	sbc	r20, r20
    2810:	55 0b       	sbc	r21, r21
    2812:	64 e0       	ldi	r22, 0x04	; 4
    2814:	81 e0       	ldi	r24, 0x01	; 1
    2816:	0e 94 09 02 	call	0x412	; 0x412 <lcd_print>
    281a:	e0 91 68 02 	lds	r30, 0x0268	; 0x800268 <__data_end>
    281e:	f0 91 69 02 	lds	r31, 0x0269	; 0x800269 <__data_end+0x1>
    2822:	ee 0f       	add	r30, r30
    2824:	ff 1f       	adc	r31, r31
    2826:	e8 5e       	subi	r30, 0xE8	; 232
    2828:	fc 4f       	sbci	r31, 0xFC	; 252
    282a:	20 81       	ld	r18, Z
    282c:	31 81       	ldd	r19, Z+1	; 0x01
    282e:	03 2e       	mov	r0, r19
    2830:	00 0c       	add	r0, r0
    2832:	44 0b       	sbc	r20, r20
    2834:	55 0b       	sbc	r21, r21
    2836:	68 e0       	ldi	r22, 0x08	; 8
    2838:	81 e0       	ldi	r24, 0x01	; 1
    283a:	0e 94 09 02 	call	0x412	; 0x412 <lcd_print>
    283e:	e0 91 68 02 	lds	r30, 0x0268	; 0x800268 <__data_end>
    2842:	f0 91 69 02 	lds	r31, 0x0269	; 0x800269 <__data_end+0x1>
    2846:	ee 0f       	add	r30, r30
    2848:	ff 1f       	adc	r31, r31
    284a:	e6 5e       	subi	r30, 0xE6	; 230
    284c:	fc 4f       	sbci	r31, 0xFC	; 252
    284e:	20 81       	ld	r18, Z
    2850:	31 81       	ldd	r19, Z+1	; 0x01
    2852:	03 2e       	mov	r0, r19
    2854:	00 0c       	add	r0, r0
    2856:	44 0b       	sbc	r20, r20
    2858:	55 0b       	sbc	r21, r21
    285a:	6c e0       	ldi	r22, 0x0C	; 12
    285c:	81 e0       	ldi	r24, 0x01	; 1
    285e:	0e 94 09 02 	call	0x412	; 0x412 <lcd_print>
    2862:	e0 91 68 02 	lds	r30, 0x0268	; 0x800268 <__data_end>
    2866:	f0 91 69 02 	lds	r31, 0x0269	; 0x800269 <__data_end+0x1>
    286a:	ee 0f       	add	r30, r30
    286c:	ff 1f       	adc	r31, r31
    286e:	e8 5e       	subi	r30, 0xE8	; 232
    2870:	fc 4f       	sbci	r31, 0xFC	; 252
    2872:	01 90       	ld	r0, Z+
    2874:	f0 81       	ld	r31, Z
    2876:	e0 2d       	mov	r30, r0
    2878:	31 97       	sbiw	r30, 0x01	; 1
    287a:	e2 31       	cpi	r30, 0x12	; 18
    287c:	f1 05       	cpc	r31, r1
    287e:	08 f0       	brcs	.+2      	; 0x2882 <followpath+0x180>
    2880:	f8 c4       	rjmp	.+2544   	; 0x3272 <followpath+0xb70>
    2882:	88 27       	eor	r24, r24
    2884:	ee 58       	subi	r30, 0x8E	; 142
    2886:	ff 4f       	sbci	r31, 0xFF	; 255
    2888:	8f 4f       	sbci	r24, 0xFF	; 255
    288a:	1c c7       	rjmp	.+3640   	; 0x36c4 <__tablejump2__>
    288c:	0e 94 cd 02 	call	0x59a	; 0x59a <blackline_data>
    2890:	0e 94 e6 02 	call	0x5cc	; 0x5cc <blackline>
    2894:	17 c0       	rjmp	.+46     	; 0x28c4 <followpath+0x1c2>
    2896:	62 e3       	ldi	r22, 0x32	; 50
    2898:	70 e0       	ldi	r23, 0x00	; 0
    289a:	80 e0       	ldi	r24, 0x00	; 0
    289c:	90 e0       	ldi	r25, 0x00	; 0
    289e:	0e 94 a6 00 	call	0x14c	; 0x14c <delay>
    28a2:	04 c0       	rjmp	.+8      	; 0x28ac <followpath+0x1aa>
    28a4:	0e 94 cd 02 	call	0x59a	; 0x59a <blackline_data>
    28a8:	0e 94 e6 02 	call	0x5cc	; 0x5cc <blackline>
    28ac:	80 91 72 02 	lds	r24, 0x0272	; 0x800272 <Left_white_line>
    28b0:	87 39       	cpi	r24, 0x97	; 151
    28b2:	20 f4       	brcc	.+8      	; 0x28bc <followpath+0x1ba>
    28b4:	80 91 70 02 	lds	r24, 0x0270	; 0x800270 <Right_white_line>
    28b8:	87 39       	cpi	r24, 0x97	; 151
    28ba:	a0 f3       	brcs	.-24     	; 0x28a4 <followpath+0x1a2>
    28bc:	80 91 71 02 	lds	r24, 0x0271	; 0x800271 <Center_white_line>
    28c0:	87 39       	cpi	r24, 0x97	; 151
    28c2:	80 f3       	brcs	.-32     	; 0x28a4 <followpath+0x1a2>
    28c4:	80 91 72 02 	lds	r24, 0x0272	; 0x800272 <Left_white_line>
    28c8:	87 39       	cpi	r24, 0x97	; 151
    28ca:	08 f0       	brcs	.+2      	; 0x28ce <followpath+0x1cc>
    28cc:	f5 c4       	rjmp	.+2538   	; 0x32b8 <followpath+0xbb6>
    28ce:	80 91 70 02 	lds	r24, 0x0270	; 0x800270 <Right_white_line>
    28d2:	87 39       	cpi	r24, 0x97	; 151
    28d4:	08 f0       	brcs	.+2      	; 0x28d8 <followpath+0x1d6>
    28d6:	f6 c4       	rjmp	.+2540   	; 0x32c4 <followpath+0xbc2>
    28d8:	de cf       	rjmp	.-68     	; 0x2896 <followpath+0x194>
    28da:	0e 94 80 04 	call	0x900	; 0x900 <node>
    28de:	62 e3       	ldi	r22, 0x32	; 50
    28e0:	70 e0       	ldi	r23, 0x00	; 0
    28e2:	80 e0       	ldi	r24, 0x00	; 0
    28e4:	90 e0       	ldi	r25, 0x00	; 0
    28e6:	0e 94 a6 00 	call	0x14c	; 0x14c <delay>
    28ea:	1f 92       	push	r1
    28ec:	82 e0       	ldi	r24, 0x02	; 2
    28ee:	8f 93       	push	r24
    28f0:	df 92       	push	r13
    28f2:	cf 92       	push	r12
    28f4:	08 d7       	rcall	.+3600   	; 0x3706 <printf>
    28f6:	0f 90       	pop	r0
    28f8:	0f 90       	pop	r0
    28fa:	0f 90       	pop	r0
    28fc:	0f 90       	pop	r0
    28fe:	ca c4       	rjmp	.+2452   	; 0x3294 <followpath+0xb92>
    2900:	f7 01       	movw	r30, r14
    2902:	b0 82       	st	Z, r11
    2904:	b8 82       	st	Y, r11
    2906:	0e 94 63 02 	call	0x4c6	; 0x4c6 <forward>
    290a:	68 e1       	ldi	r22, 0x18	; 24
    290c:	71 e0       	ldi	r23, 0x01	; 1
    290e:	80 e0       	ldi	r24, 0x00	; 0
    2910:	90 e0       	ldi	r25, 0x00	; 0
    2912:	0e 94 a6 00 	call	0x14c	; 0x14c <delay>
    2916:	0e 94 69 02 	call	0x4d2	; 0x4d2 <left>
    291a:	64 ef       	ldi	r22, 0xF4	; 244
    291c:	71 e0       	ldi	r23, 0x01	; 1
    291e:	80 e0       	ldi	r24, 0x00	; 0
    2920:	90 e0       	ldi	r25, 0x00	; 0
    2922:	0e 94 a6 00 	call	0x14c	; 0x14c <delay>
    2926:	81 e0       	ldi	r24, 0x01	; 1
    2928:	0e 94 79 02 	call	0x4f2	; 0x4f2 <ADC_Conversion>
    292c:	86 39       	cpi	r24, 0x96	; 150
    292e:	d8 f3       	brcs	.-10     	; 0x2926 <followpath+0x224>
    2930:	0e 94 cd 02 	call	0x59a	; 0x59a <blackline_data>
    2934:	17 c0       	rjmp	.+46     	; 0x2964 <followpath+0x262>
    2936:	62 e3       	ldi	r22, 0x32	; 50
    2938:	70 e0       	ldi	r23, 0x00	; 0
    293a:	80 e0       	ldi	r24, 0x00	; 0
    293c:	90 e0       	ldi	r25, 0x00	; 0
    293e:	0e 94 a6 00 	call	0x14c	; 0x14c <delay>
    2942:	04 c0       	rjmp	.+8      	; 0x294c <followpath+0x24a>
    2944:	0e 94 cd 02 	call	0x59a	; 0x59a <blackline_data>
    2948:	0e 94 e6 02 	call	0x5cc	; 0x5cc <blackline>
    294c:	80 91 72 02 	lds	r24, 0x0272	; 0x800272 <Left_white_line>
    2950:	87 39       	cpi	r24, 0x97	; 151
    2952:	20 f4       	brcc	.+8      	; 0x295c <followpath+0x25a>
    2954:	80 91 70 02 	lds	r24, 0x0270	; 0x800270 <Right_white_line>
    2958:	87 39       	cpi	r24, 0x97	; 151
    295a:	a0 f3       	brcs	.-24     	; 0x2944 <followpath+0x242>
    295c:	80 91 71 02 	lds	r24, 0x0271	; 0x800271 <Center_white_line>
    2960:	87 39       	cpi	r24, 0x97	; 151
    2962:	80 f3       	brcs	.-32     	; 0x2944 <followpath+0x242>
    2964:	80 91 72 02 	lds	r24, 0x0272	; 0x800272 <Left_white_line>
    2968:	87 39       	cpi	r24, 0x97	; 151
    296a:	08 f0       	brcs	.+2      	; 0x296e <followpath+0x26c>
    296c:	b1 c4       	rjmp	.+2402   	; 0x32d0 <followpath+0xbce>
    296e:	80 91 70 02 	lds	r24, 0x0270	; 0x800270 <Right_white_line>
    2972:	87 39       	cpi	r24, 0x97	; 151
    2974:	08 f0       	brcs	.+2      	; 0x2978 <followpath+0x276>
    2976:	b2 c4       	rjmp	.+2404   	; 0x32dc <followpath+0xbda>
    2978:	de cf       	rjmp	.-68     	; 0x2936 <followpath+0x234>
    297a:	0e 94 80 04 	call	0x900	; 0x900 <node>
    297e:	62 e3       	ldi	r22, 0x32	; 50
    2980:	70 e0       	ldi	r23, 0x00	; 0
    2982:	80 e0       	ldi	r24, 0x00	; 0
    2984:	90 e0       	ldi	r25, 0x00	; 0
    2986:	0e 94 a6 00 	call	0x14c	; 0x14c <delay>
    298a:	84 c4       	rjmp	.+2312   	; 0x3294 <followpath+0xb92>
    298c:	f7 01       	movw	r30, r14
    298e:	b0 82       	st	Z, r11
    2990:	b8 82       	st	Y, r11
    2992:	0e 94 63 02 	call	0x4c6	; 0x4c6 <forward>
    2996:	68 e1       	ldi	r22, 0x18	; 24
    2998:	71 e0       	ldi	r23, 0x01	; 1
    299a:	80 e0       	ldi	r24, 0x00	; 0
    299c:	90 e0       	ldi	r25, 0x00	; 0
    299e:	0e 94 a6 00 	call	0x14c	; 0x14c <delay>
    29a2:	0e 94 71 02 	call	0x4e2	; 0x4e2 <right>
    29a6:	64 ef       	ldi	r22, 0xF4	; 244
    29a8:	71 e0       	ldi	r23, 0x01	; 1
    29aa:	80 e0       	ldi	r24, 0x00	; 0
    29ac:	90 e0       	ldi	r25, 0x00	; 0
    29ae:	0e 94 a6 00 	call	0x14c	; 0x14c <delay>
    29b2:	82 e0       	ldi	r24, 0x02	; 2
    29b4:	0e 94 79 02 	call	0x4f2	; 0x4f2 <ADC_Conversion>
    29b8:	86 39       	cpi	r24, 0x96	; 150
    29ba:	d8 f3       	brcs	.-10     	; 0x29b2 <followpath+0x2b0>
    29bc:	0e 94 cd 02 	call	0x59a	; 0x59a <blackline_data>
    29c0:	17 c0       	rjmp	.+46     	; 0x29f0 <followpath+0x2ee>
    29c2:	62 e3       	ldi	r22, 0x32	; 50
    29c4:	70 e0       	ldi	r23, 0x00	; 0
    29c6:	80 e0       	ldi	r24, 0x00	; 0
    29c8:	90 e0       	ldi	r25, 0x00	; 0
    29ca:	0e 94 a6 00 	call	0x14c	; 0x14c <delay>
    29ce:	04 c0       	rjmp	.+8      	; 0x29d8 <followpath+0x2d6>
    29d0:	0e 94 cd 02 	call	0x59a	; 0x59a <blackline_data>
    29d4:	0e 94 e6 02 	call	0x5cc	; 0x5cc <blackline>
    29d8:	80 91 72 02 	lds	r24, 0x0272	; 0x800272 <Left_white_line>
    29dc:	87 39       	cpi	r24, 0x97	; 151
    29de:	20 f4       	brcc	.+8      	; 0x29e8 <followpath+0x2e6>
    29e0:	80 91 70 02 	lds	r24, 0x0270	; 0x800270 <Right_white_line>
    29e4:	87 39       	cpi	r24, 0x97	; 151
    29e6:	a0 f3       	brcs	.-24     	; 0x29d0 <followpath+0x2ce>
    29e8:	80 91 71 02 	lds	r24, 0x0271	; 0x800271 <Center_white_line>
    29ec:	87 39       	cpi	r24, 0x97	; 151
    29ee:	80 f3       	brcs	.-32     	; 0x29d0 <followpath+0x2ce>
    29f0:	80 91 72 02 	lds	r24, 0x0272	; 0x800272 <Left_white_line>
    29f4:	87 39       	cpi	r24, 0x97	; 151
    29f6:	08 f0       	brcs	.+2      	; 0x29fa <followpath+0x2f8>
    29f8:	77 c4       	rjmp	.+2286   	; 0x32e8 <followpath+0xbe6>
    29fa:	80 91 70 02 	lds	r24, 0x0270	; 0x800270 <Right_white_line>
    29fe:	87 39       	cpi	r24, 0x97	; 151
    2a00:	08 f0       	brcs	.+2      	; 0x2a04 <followpath+0x302>
    2a02:	78 c4       	rjmp	.+2288   	; 0x32f4 <followpath+0xbf2>
    2a04:	de cf       	rjmp	.-68     	; 0x29c2 <followpath+0x2c0>
    2a06:	0e 94 80 04 	call	0x900	; 0x900 <node>
    2a0a:	62 e3       	ldi	r22, 0x32	; 50
    2a0c:	70 e0       	ldi	r23, 0x00	; 0
    2a0e:	80 e0       	ldi	r24, 0x00	; 0
    2a10:	90 e0       	ldi	r25, 0x00	; 0
    2a12:	0e 94 a6 00 	call	0x14c	; 0x14c <delay>
    2a16:	3e c4       	rjmp	.+2172   	; 0x3294 <followpath+0xb92>
    2a18:	f7 01       	movw	r30, r14
    2a1a:	b0 82       	st	Z, r11
    2a1c:	b8 82       	st	Y, r11
    2a1e:	0e 94 71 02 	call	0x4e2	; 0x4e2 <right>
    2a22:	68 ee       	ldi	r22, 0xE8	; 232
    2a24:	73 e0       	ldi	r23, 0x03	; 3
    2a26:	80 e0       	ldi	r24, 0x00	; 0
    2a28:	90 e0       	ldi	r25, 0x00	; 0
    2a2a:	0e 94 a6 00 	call	0x14c	; 0x14c <delay>
    2a2e:	82 e0       	ldi	r24, 0x02	; 2
    2a30:	0e 94 79 02 	call	0x4f2	; 0x4f2 <ADC_Conversion>
    2a34:	86 39       	cpi	r24, 0x96	; 150
    2a36:	d8 f3       	brcs	.-10     	; 0x2a2e <followpath+0x32c>
    2a38:	0e 94 80 04 	call	0x900	; 0x900 <node>
    2a3c:	1f 92       	push	r1
    2a3e:	82 e0       	ldi	r24, 0x02	; 2
    2a40:	8f 93       	push	r24
    2a42:	df 92       	push	r13
    2a44:	cf 92       	push	r12
    2a46:	5f d6       	rcall	.+3262   	; 0x3706 <printf>
    2a48:	0f 90       	pop	r0
    2a4a:	0f 90       	pop	r0
    2a4c:	0f 90       	pop	r0
    2a4e:	0f 90       	pop	r0
    2a50:	21 c4       	rjmp	.+2114   	; 0x3294 <followpath+0xb92>
    2a52:	f7 01       	movw	r30, r14
    2a54:	b0 82       	st	Z, r11
    2a56:	b8 82       	st	Y, r11
    2a58:	0e 94 63 02 	call	0x4c6	; 0x4c6 <forward>
    2a5c:	6c e7       	ldi	r22, 0x7C	; 124
    2a5e:	71 e0       	ldi	r23, 0x01	; 1
    2a60:	80 e0       	ldi	r24, 0x00	; 0
    2a62:	90 e0       	ldi	r25, 0x00	; 0
    2a64:	0e 94 a6 00 	call	0x14c	; 0x14c <delay>
    2a68:	0e 94 69 02 	call	0x4d2	; 0x4d2 <left>
    2a6c:	60 e9       	ldi	r22, 0x90	; 144
    2a6e:	71 e0       	ldi	r23, 0x01	; 1
    2a70:	80 e0       	ldi	r24, 0x00	; 0
    2a72:	90 e0       	ldi	r25, 0x00	; 0
    2a74:	0e 94 a6 00 	call	0x14c	; 0x14c <delay>
    2a78:	82 e0       	ldi	r24, 0x02	; 2
    2a7a:	0e 94 79 02 	call	0x4f2	; 0x4f2 <ADC_Conversion>
    2a7e:	86 39       	cpi	r24, 0x96	; 150
    2a80:	d8 f3       	brcs	.-10     	; 0x2a78 <followpath+0x376>
    2a82:	0e 94 66 02 	call	0x4cc	; 0x4cc <stop>
    2a86:	68 ee       	ldi	r22, 0xE8	; 232
    2a88:	73 e0       	ldi	r23, 0x03	; 3
    2a8a:	80 e0       	ldi	r24, 0x00	; 0
    2a8c:	90 e0       	ldi	r25, 0x00	; 0
    2a8e:	0e 94 a6 00 	call	0x14c	; 0x14c <delay>
    2a92:	0e 94 80 04 	call	0x900	; 0x900 <node>
    2a96:	fe c3       	rjmp	.+2044   	; 0x3294 <followpath+0xb92>
    2a98:	f7 01       	movw	r30, r14
    2a9a:	b0 82       	st	Z, r11
    2a9c:	b8 82       	st	Y, r11
    2a9e:	0e 94 63 02 	call	0x4c6	; 0x4c6 <forward>
    2aa2:	68 e1       	ldi	r22, 0x18	; 24
    2aa4:	71 e0       	ldi	r23, 0x01	; 1
    2aa6:	80 e0       	ldi	r24, 0x00	; 0
    2aa8:	90 e0       	ldi	r25, 0x00	; 0
    2aaa:	0e 94 a6 00 	call	0x14c	; 0x14c <delay>
    2aae:	0e 94 71 02 	call	0x4e2	; 0x4e2 <right>
    2ab2:	6e e5       	ldi	r22, 0x5E	; 94
    2ab4:	71 e0       	ldi	r23, 0x01	; 1
    2ab6:	80 e0       	ldi	r24, 0x00	; 0
    2ab8:	90 e0       	ldi	r25, 0x00	; 0
    2aba:	0e 94 a6 00 	call	0x14c	; 0x14c <delay>
    2abe:	82 e0       	ldi	r24, 0x02	; 2
    2ac0:	0e 94 79 02 	call	0x4f2	; 0x4f2 <ADC_Conversion>
    2ac4:	86 39       	cpi	r24, 0x96	; 150
    2ac6:	d8 f3       	brcs	.-10     	; 0x2abe <followpath+0x3bc>
    2ac8:	0e 94 66 02 	call	0x4cc	; 0x4cc <stop>
    2acc:	68 ee       	ldi	r22, 0xE8	; 232
    2ace:	73 e0       	ldi	r23, 0x03	; 3
    2ad0:	80 e0       	ldi	r24, 0x00	; 0
    2ad2:	90 e0       	ldi	r25, 0x00	; 0
    2ad4:	0e 94 a6 00 	call	0x14c	; 0x14c <delay>
    2ad8:	0e 94 80 04 	call	0x900	; 0x900 <node>
    2adc:	db c3       	rjmp	.+1974   	; 0x3294 <followpath+0xb92>
    2ade:	f7 01       	movw	r30, r14
    2ae0:	b0 82       	st	Z, r11
    2ae2:	b8 82       	st	Y, r11
    2ae4:	0e 94 63 02 	call	0x4c6	; 0x4c6 <forward>
    2ae8:	6c e2       	ldi	r22, 0x2C	; 44
    2aea:	71 e0       	ldi	r23, 0x01	; 1
    2aec:	80 e0       	ldi	r24, 0x00	; 0
    2aee:	90 e0       	ldi	r25, 0x00	; 0
    2af0:	0e 94 a6 00 	call	0x14c	; 0x14c <delay>
    2af4:	0e 94 66 02 	call	0x4cc	; 0x4cc <stop>
    2af8:	0e 94 80 04 	call	0x900	; 0x900 <node>
    2afc:	cb c3       	rjmp	.+1942   	; 0x3294 <followpath+0xb92>
    2afe:	0e 94 71 02 	call	0x4e2	; 0x4e2 <right>
    2b02:	f7 01       	movw	r30, r14
    2b04:	b0 82       	st	Z, r11
    2b06:	b8 82       	st	Y, r11
    2b08:	68 e5       	ldi	r22, 0x58	; 88
    2b0a:	72 e0       	ldi	r23, 0x02	; 2
    2b0c:	80 e0       	ldi	r24, 0x00	; 0
    2b0e:	90 e0       	ldi	r25, 0x00	; 0
    2b10:	0e 94 a6 00 	call	0x14c	; 0x14c <delay>
    2b14:	82 e0       	ldi	r24, 0x02	; 2
    2b16:	0e 94 79 02 	call	0x4f2	; 0x4f2 <ADC_Conversion>
    2b1a:	86 39       	cpi	r24, 0x96	; 150
    2b1c:	d8 f3       	brcs	.-10     	; 0x2b14 <followpath+0x412>
    2b1e:	0e 94 66 02 	call	0x4cc	; 0x4cc <stop>
    2b22:	64 e6       	ldi	r22, 0x64	; 100
    2b24:	70 e0       	ldi	r23, 0x00	; 0
    2b26:	80 e0       	ldi	r24, 0x00	; 0
    2b28:	90 e0       	ldi	r25, 0x00	; 0
    2b2a:	0e 94 a6 00 	call	0x14c	; 0x14c <delay>
    2b2e:	0e 94 80 04 	call	0x900	; 0x900 <node>
    2b32:	0e 94 80 04 	call	0x900	; 0x900 <node>
    2b36:	ae c3       	rjmp	.+1884   	; 0x3294 <followpath+0xb92>
    2b38:	f7 01       	movw	r30, r14
    2b3a:	b0 82       	st	Z, r11
    2b3c:	b8 82       	st	Y, r11
    2b3e:	0e 94 71 02 	call	0x4e2	; 0x4e2 <right>
    2b42:	64 ea       	ldi	r22, 0xA4	; 164
    2b44:	76 e0       	ldi	r23, 0x06	; 6
    2b46:	80 e0       	ldi	r24, 0x00	; 0
    2b48:	90 e0       	ldi	r25, 0x00	; 0
    2b4a:	0e 94 a6 00 	call	0x14c	; 0x14c <delay>
    2b4e:	82 e0       	ldi	r24, 0x02	; 2
    2b50:	0e 94 79 02 	call	0x4f2	; 0x4f2 <ADC_Conversion>
    2b54:	86 39       	cpi	r24, 0x96	; 150
    2b56:	d8 f3       	brcs	.-10     	; 0x2b4e <followpath+0x44c>
    2b58:	0e 94 cd 02 	call	0x59a	; 0x59a <blackline_data>
    2b5c:	0e 94 e6 02 	call	0x5cc	; 0x5cc <blackline>
    2b60:	17 c0       	rjmp	.+46     	; 0x2b90 <followpath+0x48e>
    2b62:	62 e3       	ldi	r22, 0x32	; 50
    2b64:	70 e0       	ldi	r23, 0x00	; 0
    2b66:	80 e0       	ldi	r24, 0x00	; 0
    2b68:	90 e0       	ldi	r25, 0x00	; 0
    2b6a:	0e 94 a6 00 	call	0x14c	; 0x14c <delay>
    2b6e:	04 c0       	rjmp	.+8      	; 0x2b78 <followpath+0x476>
    2b70:	0e 94 cd 02 	call	0x59a	; 0x59a <blackline_data>
    2b74:	0e 94 e6 02 	call	0x5cc	; 0x5cc <blackline>
    2b78:	80 91 72 02 	lds	r24, 0x0272	; 0x800272 <Left_white_line>
    2b7c:	87 39       	cpi	r24, 0x97	; 151
    2b7e:	20 f4       	brcc	.+8      	; 0x2b88 <followpath+0x486>
    2b80:	80 91 70 02 	lds	r24, 0x0270	; 0x800270 <Right_white_line>
    2b84:	87 39       	cpi	r24, 0x97	; 151
    2b86:	a0 f3       	brcs	.-24     	; 0x2b70 <followpath+0x46e>
    2b88:	80 91 71 02 	lds	r24, 0x0271	; 0x800271 <Center_white_line>
    2b8c:	87 39       	cpi	r24, 0x97	; 151
    2b8e:	80 f3       	brcs	.-32     	; 0x2b70 <followpath+0x46e>
    2b90:	80 91 72 02 	lds	r24, 0x0272	; 0x800272 <Left_white_line>
    2b94:	87 39       	cpi	r24, 0x97	; 151
    2b96:	08 f0       	brcs	.+2      	; 0x2b9a <followpath+0x498>
    2b98:	b3 c3       	rjmp	.+1894   	; 0x3300 <followpath+0xbfe>
    2b9a:	80 91 70 02 	lds	r24, 0x0270	; 0x800270 <Right_white_line>
    2b9e:	87 39       	cpi	r24, 0x97	; 151
    2ba0:	08 f0       	brcs	.+2      	; 0x2ba4 <followpath+0x4a2>
    2ba2:	b4 c3       	rjmp	.+1896   	; 0x330c <followpath+0xc0a>
    2ba4:	de cf       	rjmp	.-68     	; 0x2b62 <followpath+0x460>
    2ba6:	0e 94 80 04 	call	0x900	; 0x900 <node>
    2baa:	62 e3       	ldi	r22, 0x32	; 50
    2bac:	70 e0       	ldi	r23, 0x00	; 0
    2bae:	80 e0       	ldi	r24, 0x00	; 0
    2bb0:	90 e0       	ldi	r25, 0x00	; 0
    2bb2:	0e 94 a6 00 	call	0x14c	; 0x14c <delay>
    2bb6:	6e c3       	rjmp	.+1756   	; 0x3294 <followpath+0xb92>
    2bb8:	0e 94 cd 02 	call	0x59a	; 0x59a <blackline_data>
    2bbc:	0e 94 b3 03 	call	0x766	; 0x766 <blackline_lifting>
    2bc0:	17 c0       	rjmp	.+46     	; 0x2bf0 <followpath+0x4ee>
    2bc2:	62 e3       	ldi	r22, 0x32	; 50
    2bc4:	70 e0       	ldi	r23, 0x00	; 0
    2bc6:	80 e0       	ldi	r24, 0x00	; 0
    2bc8:	90 e0       	ldi	r25, 0x00	; 0
    2bca:	0e 94 a6 00 	call	0x14c	; 0x14c <delay>
    2bce:	04 c0       	rjmp	.+8      	; 0x2bd8 <followpath+0x4d6>
    2bd0:	0e 94 cd 02 	call	0x59a	; 0x59a <blackline_data>
    2bd4:	0e 94 e6 02 	call	0x5cc	; 0x5cc <blackline>
    2bd8:	80 91 72 02 	lds	r24, 0x0272	; 0x800272 <Left_white_line>
    2bdc:	87 39       	cpi	r24, 0x97	; 151
    2bde:	20 f4       	brcc	.+8      	; 0x2be8 <followpath+0x4e6>
    2be0:	80 91 70 02 	lds	r24, 0x0270	; 0x800270 <Right_white_line>
    2be4:	87 39       	cpi	r24, 0x97	; 151
    2be6:	a0 f3       	brcs	.-24     	; 0x2bd0 <followpath+0x4ce>
    2be8:	80 91 71 02 	lds	r24, 0x0271	; 0x800271 <Center_white_line>
    2bec:	87 39       	cpi	r24, 0x97	; 151
    2bee:	80 f3       	brcs	.-32     	; 0x2bd0 <followpath+0x4ce>
    2bf0:	80 91 72 02 	lds	r24, 0x0272	; 0x800272 <Left_white_line>
    2bf4:	87 39       	cpi	r24, 0x97	; 151
    2bf6:	08 f0       	brcs	.+2      	; 0x2bfa <followpath+0x4f8>
    2bf8:	8f c3       	rjmp	.+1822   	; 0x3318 <followpath+0xc16>
    2bfa:	80 91 70 02 	lds	r24, 0x0270	; 0x800270 <Right_white_line>
    2bfe:	87 39       	cpi	r24, 0x97	; 151
    2c00:	08 f0       	brcs	.+2      	; 0x2c04 <followpath+0x502>
    2c02:	90 c3       	rjmp	.+1824   	; 0x3324 <followpath+0xc22>
    2c04:	de cf       	rjmp	.-68     	; 0x2bc2 <followpath+0x4c0>
    2c06:	6e e1       	ldi	r22, 0x1E	; 30
    2c08:	70 e0       	ldi	r23, 0x00	; 0
    2c0a:	80 e0       	ldi	r24, 0x00	; 0
    2c0c:	90 e0       	ldi	r25, 0x00	; 0
    2c0e:	0e 94 a6 00 	call	0x14c	; 0x14c <delay>
    2c12:	f7 01       	movw	r30, r14
    2c14:	a0 82       	st	Z, r10
    2c16:	a8 82       	st	Y, r10
    2c18:	0e 94 63 02 	call	0x4c6	; 0x4c6 <forward>
    2c1c:	68 ec       	ldi	r22, 0xC8	; 200
    2c1e:	70 e0       	ldi	r23, 0x00	; 0
    2c20:	80 e0       	ldi	r24, 0x00	; 0
    2c22:	90 e0       	ldi	r25, 0x00	; 0
    2c24:	0e 94 a6 00 	call	0x14c	; 0x14c <delay>
    2c28:	0e 94 cd 02 	call	0x59a	; 0x59a <blackline_data>
    2c2c:	17 c0       	rjmp	.+46     	; 0x2c5c <followpath+0x55a>
    2c2e:	62 e3       	ldi	r22, 0x32	; 50
    2c30:	70 e0       	ldi	r23, 0x00	; 0
    2c32:	80 e0       	ldi	r24, 0x00	; 0
    2c34:	90 e0       	ldi	r25, 0x00	; 0
    2c36:	0e 94 a6 00 	call	0x14c	; 0x14c <delay>
    2c3a:	04 c0       	rjmp	.+8      	; 0x2c44 <followpath+0x542>
    2c3c:	0e 94 cd 02 	call	0x59a	; 0x59a <blackline_data>
    2c40:	0e 94 e6 02 	call	0x5cc	; 0x5cc <blackline>
    2c44:	80 91 72 02 	lds	r24, 0x0272	; 0x800272 <Left_white_line>
    2c48:	87 39       	cpi	r24, 0x97	; 151
    2c4a:	20 f4       	brcc	.+8      	; 0x2c54 <followpath+0x552>
    2c4c:	80 91 70 02 	lds	r24, 0x0270	; 0x800270 <Right_white_line>
    2c50:	87 39       	cpi	r24, 0x97	; 151
    2c52:	a0 f3       	brcs	.-24     	; 0x2c3c <followpath+0x53a>
    2c54:	80 91 71 02 	lds	r24, 0x0271	; 0x800271 <Center_white_line>
    2c58:	87 39       	cpi	r24, 0x97	; 151
    2c5a:	80 f3       	brcs	.-32     	; 0x2c3c <followpath+0x53a>
    2c5c:	80 91 72 02 	lds	r24, 0x0272	; 0x800272 <Left_white_line>
    2c60:	87 39       	cpi	r24, 0x97	; 151
    2c62:	08 f0       	brcs	.+2      	; 0x2c66 <followpath+0x564>
    2c64:	65 c3       	rjmp	.+1738   	; 0x3330 <followpath+0xc2e>
    2c66:	80 91 70 02 	lds	r24, 0x0270	; 0x800270 <Right_white_line>
    2c6a:	87 39       	cpi	r24, 0x97	; 151
    2c6c:	08 f0       	brcs	.+2      	; 0x2c70 <followpath+0x56e>
    2c6e:	66 c3       	rjmp	.+1740   	; 0x333c <followpath+0xc3a>
    2c70:	de cf       	rjmp	.-68     	; 0x2c2e <followpath+0x52c>
    2c72:	0e 94 80 04 	call	0x900	; 0x900 <node>
    2c76:	6e e1       	ldi	r22, 0x1E	; 30
    2c78:	70 e0       	ldi	r23, 0x00	; 0
    2c7a:	80 e0       	ldi	r24, 0x00	; 0
    2c7c:	90 e0       	ldi	r25, 0x00	; 0
    2c7e:	0e 94 a6 00 	call	0x14c	; 0x14c <delay>
    2c82:	08 c3       	rjmp	.+1552   	; 0x3294 <followpath+0xb92>
    2c84:	f7 01       	movw	r30, r14
    2c86:	b0 82       	st	Z, r11
    2c88:	b8 82       	st	Y, r11
    2c8a:	0e 94 63 02 	call	0x4c6	; 0x4c6 <forward>
    2c8e:	68 e1       	ldi	r22, 0x18	; 24
    2c90:	71 e0       	ldi	r23, 0x01	; 1
    2c92:	80 e0       	ldi	r24, 0x00	; 0
    2c94:	90 e0       	ldi	r25, 0x00	; 0
    2c96:	0e 94 a6 00 	call	0x14c	; 0x14c <delay>
    2c9a:	0e 94 69 02 	call	0x4d2	; 0x4d2 <left>
    2c9e:	64 ef       	ldi	r22, 0xF4	; 244
    2ca0:	71 e0       	ldi	r23, 0x01	; 1
    2ca2:	80 e0       	ldi	r24, 0x00	; 0
    2ca4:	90 e0       	ldi	r25, 0x00	; 0
    2ca6:	0e 94 a6 00 	call	0x14c	; 0x14c <delay>
    2caa:	81 e0       	ldi	r24, 0x01	; 1
    2cac:	0e 94 79 02 	call	0x4f2	; 0x4f2 <ADC_Conversion>
    2cb0:	86 39       	cpi	r24, 0x96	; 150
    2cb2:	d8 f3       	brcs	.-10     	; 0x2caa <followpath+0x5a8>
    2cb4:	0e 94 cd 02 	call	0x59a	; 0x59a <blackline_data>
    2cb8:	17 c0       	rjmp	.+46     	; 0x2ce8 <followpath+0x5e6>
    2cba:	62 e3       	ldi	r22, 0x32	; 50
    2cbc:	70 e0       	ldi	r23, 0x00	; 0
    2cbe:	80 e0       	ldi	r24, 0x00	; 0
    2cc0:	90 e0       	ldi	r25, 0x00	; 0
    2cc2:	0e 94 a6 00 	call	0x14c	; 0x14c <delay>
    2cc6:	04 c0       	rjmp	.+8      	; 0x2cd0 <followpath+0x5ce>
    2cc8:	0e 94 cd 02 	call	0x59a	; 0x59a <blackline_data>
    2ccc:	0e 94 e6 02 	call	0x5cc	; 0x5cc <blackline>
    2cd0:	80 91 72 02 	lds	r24, 0x0272	; 0x800272 <Left_white_line>
    2cd4:	87 39       	cpi	r24, 0x97	; 151
    2cd6:	20 f4       	brcc	.+8      	; 0x2ce0 <followpath+0x5de>
    2cd8:	80 91 70 02 	lds	r24, 0x0270	; 0x800270 <Right_white_line>
    2cdc:	87 39       	cpi	r24, 0x97	; 151
    2cde:	a0 f3       	brcs	.-24     	; 0x2cc8 <followpath+0x5c6>
    2ce0:	80 91 71 02 	lds	r24, 0x0271	; 0x800271 <Center_white_line>
    2ce4:	87 39       	cpi	r24, 0x97	; 151
    2ce6:	80 f3       	brcs	.-32     	; 0x2cc8 <followpath+0x5c6>
    2ce8:	80 91 72 02 	lds	r24, 0x0272	; 0x800272 <Left_white_line>
    2cec:	87 39       	cpi	r24, 0x97	; 151
    2cee:	08 f0       	brcs	.+2      	; 0x2cf2 <followpath+0x5f0>
    2cf0:	2b c3       	rjmp	.+1622   	; 0x3348 <followpath+0xc46>
    2cf2:	80 91 70 02 	lds	r24, 0x0270	; 0x800270 <Right_white_line>
    2cf6:	87 39       	cpi	r24, 0x97	; 151
    2cf8:	08 f0       	brcs	.+2      	; 0x2cfc <followpath+0x5fa>
    2cfa:	2c c3       	rjmp	.+1624   	; 0x3354 <followpath+0xc52>
    2cfc:	de cf       	rjmp	.-68     	; 0x2cba <followpath+0x5b8>
    2cfe:	0e 94 80 04 	call	0x900	; 0x900 <node>
    2d02:	6e e1       	ldi	r22, 0x1E	; 30
    2d04:	70 e0       	ldi	r23, 0x00	; 0
    2d06:	80 e0       	ldi	r24, 0x00	; 0
    2d08:	90 e0       	ldi	r25, 0x00	; 0
    2d0a:	0e 94 a6 00 	call	0x14c	; 0x14c <delay>
    2d0e:	f7 01       	movw	r30, r14
    2d10:	a0 82       	st	Z, r10
    2d12:	a8 82       	st	Y, r10
    2d14:	0e 94 63 02 	call	0x4c6	; 0x4c6 <forward>
    2d18:	64 e6       	ldi	r22, 0x64	; 100
    2d1a:	70 e0       	ldi	r23, 0x00	; 0
    2d1c:	80 e0       	ldi	r24, 0x00	; 0
    2d1e:	90 e0       	ldi	r25, 0x00	; 0
    2d20:	0e 94 a6 00 	call	0x14c	; 0x14c <delay>
    2d24:	0e 94 66 02 	call	0x4cc	; 0x4cc <stop>
    2d28:	68 e8       	ldi	r22, 0x88	; 136
    2d2a:	73 e1       	ldi	r23, 0x13	; 19
    2d2c:	80 e0       	ldi	r24, 0x00	; 0
    2d2e:	90 e0       	ldi	r25, 0x00	; 0
    2d30:	0e 94 a6 00 	call	0x14c	; 0x14c <delay>
    2d34:	af c2       	rjmp	.+1374   	; 0x3294 <followpath+0xb92>
    2d36:	0e 94 71 02 	call	0x4e2	; 0x4e2 <right>
    2d3a:	64 ef       	ldi	r22, 0xF4	; 244
    2d3c:	71 e0       	ldi	r23, 0x01	; 1
    2d3e:	80 e0       	ldi	r24, 0x00	; 0
    2d40:	90 e0       	ldi	r25, 0x00	; 0
    2d42:	0e 94 a6 00 	call	0x14c	; 0x14c <delay>
    2d46:	82 e0       	ldi	r24, 0x02	; 2
    2d48:	0e 94 79 02 	call	0x4f2	; 0x4f2 <ADC_Conversion>
    2d4c:	86 39       	cpi	r24, 0x96	; 150
    2d4e:	d8 f3       	brcs	.-10     	; 0x2d46 <followpath+0x644>
    2d50:	0e 94 cd 02 	call	0x59a	; 0x59a <blackline_data>
    2d54:	17 c0       	rjmp	.+46     	; 0x2d84 <followpath+0x682>
    2d56:	62 e3       	ldi	r22, 0x32	; 50
    2d58:	70 e0       	ldi	r23, 0x00	; 0
    2d5a:	80 e0       	ldi	r24, 0x00	; 0
    2d5c:	90 e0       	ldi	r25, 0x00	; 0
    2d5e:	0e 94 a6 00 	call	0x14c	; 0x14c <delay>
    2d62:	04 c0       	rjmp	.+8      	; 0x2d6c <followpath+0x66a>
    2d64:	0e 94 cd 02 	call	0x59a	; 0x59a <blackline_data>
    2d68:	0e 94 e6 02 	call	0x5cc	; 0x5cc <blackline>
    2d6c:	80 91 72 02 	lds	r24, 0x0272	; 0x800272 <Left_white_line>
    2d70:	87 39       	cpi	r24, 0x97	; 151
    2d72:	20 f4       	brcc	.+8      	; 0x2d7c <followpath+0x67a>
    2d74:	80 91 70 02 	lds	r24, 0x0270	; 0x800270 <Right_white_line>
    2d78:	87 39       	cpi	r24, 0x97	; 151
    2d7a:	a0 f3       	brcs	.-24     	; 0x2d64 <followpath+0x662>
    2d7c:	80 91 71 02 	lds	r24, 0x0271	; 0x800271 <Center_white_line>
    2d80:	87 39       	cpi	r24, 0x97	; 151
    2d82:	80 f3       	brcs	.-32     	; 0x2d64 <followpath+0x662>
    2d84:	80 91 72 02 	lds	r24, 0x0272	; 0x800272 <Left_white_line>
    2d88:	87 39       	cpi	r24, 0x97	; 151
    2d8a:	08 f0       	brcs	.+2      	; 0x2d8e <followpath+0x68c>
    2d8c:	e9 c2       	rjmp	.+1490   	; 0x3360 <followpath+0xc5e>
    2d8e:	80 91 70 02 	lds	r24, 0x0270	; 0x800270 <Right_white_line>
    2d92:	87 39       	cpi	r24, 0x97	; 151
    2d94:	08 f0       	brcs	.+2      	; 0x2d98 <followpath+0x696>
    2d96:	ea c2       	rjmp	.+1492   	; 0x336c <followpath+0xc6a>
    2d98:	de cf       	rjmp	.-68     	; 0x2d56 <followpath+0x654>
    2d9a:	0e 94 80 04 	call	0x900	; 0x900 <node>
    2d9e:	62 e3       	ldi	r22, 0x32	; 50
    2da0:	70 e0       	ldi	r23, 0x00	; 0
    2da2:	80 e0       	ldi	r24, 0x00	; 0
    2da4:	90 e0       	ldi	r25, 0x00	; 0
    2da6:	0e 94 a6 00 	call	0x14c	; 0x14c <delay>
    2daa:	74 c2       	rjmp	.+1256   	; 0x3294 <followpath+0xb92>
    2dac:	0e 94 69 02 	call	0x4d2	; 0x4d2 <left>
    2db0:	64 ef       	ldi	r22, 0xF4	; 244
    2db2:	71 e0       	ldi	r23, 0x01	; 1
    2db4:	80 e0       	ldi	r24, 0x00	; 0
    2db6:	90 e0       	ldi	r25, 0x00	; 0
    2db8:	0e 94 a6 00 	call	0x14c	; 0x14c <delay>
    2dbc:	82 e0       	ldi	r24, 0x02	; 2
    2dbe:	0e 94 79 02 	call	0x4f2	; 0x4f2 <ADC_Conversion>
    2dc2:	86 39       	cpi	r24, 0x96	; 150
    2dc4:	d8 f3       	brcs	.-10     	; 0x2dbc <followpath+0x6ba>
    2dc6:	0e 94 cd 02 	call	0x59a	; 0x59a <blackline_data>
    2dca:	17 c0       	rjmp	.+46     	; 0x2dfa <followpath+0x6f8>
    2dcc:	62 e3       	ldi	r22, 0x32	; 50
    2dce:	70 e0       	ldi	r23, 0x00	; 0
    2dd0:	80 e0       	ldi	r24, 0x00	; 0
    2dd2:	90 e0       	ldi	r25, 0x00	; 0
    2dd4:	0e 94 a6 00 	call	0x14c	; 0x14c <delay>
    2dd8:	04 c0       	rjmp	.+8      	; 0x2de2 <followpath+0x6e0>
    2dda:	0e 94 cd 02 	call	0x59a	; 0x59a <blackline_data>
    2dde:	0e 94 e6 02 	call	0x5cc	; 0x5cc <blackline>
    2de2:	80 91 72 02 	lds	r24, 0x0272	; 0x800272 <Left_white_line>
    2de6:	87 39       	cpi	r24, 0x97	; 151
    2de8:	20 f4       	brcc	.+8      	; 0x2df2 <followpath+0x6f0>
    2dea:	80 91 70 02 	lds	r24, 0x0270	; 0x800270 <Right_white_line>
    2dee:	87 39       	cpi	r24, 0x97	; 151
    2df0:	a0 f3       	brcs	.-24     	; 0x2dda <followpath+0x6d8>
    2df2:	80 91 71 02 	lds	r24, 0x0271	; 0x800271 <Center_white_line>
    2df6:	87 39       	cpi	r24, 0x97	; 151
    2df8:	80 f3       	brcs	.-32     	; 0x2dda <followpath+0x6d8>
    2dfa:	80 91 72 02 	lds	r24, 0x0272	; 0x800272 <Left_white_line>
    2dfe:	87 39       	cpi	r24, 0x97	; 151
    2e00:	08 f0       	brcs	.+2      	; 0x2e04 <followpath+0x702>
    2e02:	ba c2       	rjmp	.+1396   	; 0x3378 <followpath+0xc76>
    2e04:	80 91 70 02 	lds	r24, 0x0270	; 0x800270 <Right_white_line>
    2e08:	87 39       	cpi	r24, 0x97	; 151
    2e0a:	08 f0       	brcs	.+2      	; 0x2e0e <followpath+0x70c>
    2e0c:	bb c2       	rjmp	.+1398   	; 0x3384 <followpath+0xc82>
    2e0e:	de cf       	rjmp	.-68     	; 0x2dcc <followpath+0x6ca>
    2e10:	0e 94 80 04 	call	0x900	; 0x900 <node>
    2e14:	62 e3       	ldi	r22, 0x32	; 50
    2e16:	70 e0       	ldi	r23, 0x00	; 0
    2e18:	80 e0       	ldi	r24, 0x00	; 0
    2e1a:	90 e0       	ldi	r25, 0x00	; 0
    2e1c:	0e 94 a6 00 	call	0x14c	; 0x14c <delay>
    2e20:	39 c2       	rjmp	.+1138   	; 0x3294 <followpath+0xb92>
    2e22:	f7 01       	movw	r30, r14
    2e24:	a0 82       	st	Z, r10
    2e26:	a8 82       	st	Y, r10
    2e28:	0e 94 63 02 	call	0x4c6	; 0x4c6 <forward>
    2e2c:	6c eb       	ldi	r22, 0xBC	; 188
    2e2e:	72 e0       	ldi	r23, 0x02	; 2
    2e30:	80 e0       	ldi	r24, 0x00	; 0
    2e32:	90 e0       	ldi	r25, 0x00	; 0
    2e34:	0e 94 a6 00 	call	0x14c	; 0x14c <delay>
    2e38:	0e 94 69 02 	call	0x4d2	; 0x4d2 <left>
    2e3c:	64 e6       	ldi	r22, 0x64	; 100
    2e3e:	70 e0       	ldi	r23, 0x00	; 0
    2e40:	80 e0       	ldi	r24, 0x00	; 0
    2e42:	90 e0       	ldi	r25, 0x00	; 0
    2e44:	0e 94 a6 00 	call	0x14c	; 0x14c <delay>
    2e48:	82 e0       	ldi	r24, 0x02	; 2
    2e4a:	0e 94 79 02 	call	0x4f2	; 0x4f2 <ADC_Conversion>
    2e4e:	86 39       	cpi	r24, 0x96	; 150
    2e50:	d8 f3       	brcs	.-10     	; 0x2e48 <followpath+0x746>
    2e52:	0e 94 66 02 	call	0x4cc	; 0x4cc <stop>
    2e56:	62 e3       	ldi	r22, 0x32	; 50
    2e58:	70 e0       	ldi	r23, 0x00	; 0
    2e5a:	80 e0       	ldi	r24, 0x00	; 0
    2e5c:	90 e0       	ldi	r25, 0x00	; 0
    2e5e:	0e 94 a6 00 	call	0x14c	; 0x14c <delay>
    2e62:	0e 94 cd 02 	call	0x59a	; 0x59a <blackline_data>
    2e66:	17 c0       	rjmp	.+46     	; 0x2e96 <followpath+0x794>
    2e68:	62 e3       	ldi	r22, 0x32	; 50
    2e6a:	70 e0       	ldi	r23, 0x00	; 0
    2e6c:	80 e0       	ldi	r24, 0x00	; 0
    2e6e:	90 e0       	ldi	r25, 0x00	; 0
    2e70:	0e 94 a6 00 	call	0x14c	; 0x14c <delay>
    2e74:	04 c0       	rjmp	.+8      	; 0x2e7e <followpath+0x77c>
    2e76:	0e 94 cd 02 	call	0x59a	; 0x59a <blackline_data>
    2e7a:	0e 94 e6 02 	call	0x5cc	; 0x5cc <blackline>
    2e7e:	80 91 72 02 	lds	r24, 0x0272	; 0x800272 <Left_white_line>
    2e82:	87 39       	cpi	r24, 0x97	; 151
    2e84:	20 f4       	brcc	.+8      	; 0x2e8e <followpath+0x78c>
    2e86:	80 91 70 02 	lds	r24, 0x0270	; 0x800270 <Right_white_line>
    2e8a:	87 39       	cpi	r24, 0x97	; 151
    2e8c:	a0 f3       	brcs	.-24     	; 0x2e76 <followpath+0x774>
    2e8e:	80 91 71 02 	lds	r24, 0x0271	; 0x800271 <Center_white_line>
    2e92:	87 39       	cpi	r24, 0x97	; 151
    2e94:	80 f3       	brcs	.-32     	; 0x2e76 <followpath+0x774>
    2e96:	80 91 72 02 	lds	r24, 0x0272	; 0x800272 <Left_white_line>
    2e9a:	87 39       	cpi	r24, 0x97	; 151
    2e9c:	08 f0       	brcs	.+2      	; 0x2ea0 <followpath+0x79e>
    2e9e:	78 c2       	rjmp	.+1264   	; 0x3390 <followpath+0xc8e>
    2ea0:	80 91 70 02 	lds	r24, 0x0270	; 0x800270 <Right_white_line>
    2ea4:	87 39       	cpi	r24, 0x97	; 151
    2ea6:	08 f0       	brcs	.+2      	; 0x2eaa <followpath+0x7a8>
    2ea8:	79 c2       	rjmp	.+1266   	; 0x339c <followpath+0xc9a>
    2eaa:	de cf       	rjmp	.-68     	; 0x2e68 <followpath+0x766>
    2eac:	0e 94 80 04 	call	0x900	; 0x900 <node>
    2eb0:	0e 94 66 02 	call	0x4cc	; 0x4cc <stop>
    2eb4:	6c e2       	ldi	r22, 0x2C	; 44
    2eb6:	71 e0       	ldi	r23, 0x01	; 1
    2eb8:	80 e0       	ldi	r24, 0x00	; 0
    2eba:	90 e0       	ldi	r25, 0x00	; 0
    2ebc:	0e 94 a6 00 	call	0x14c	; 0x14c <delay>
    2ec0:	e9 c1       	rjmp	.+978    	; 0x3294 <followpath+0xb92>
    2ec2:	f7 01       	movw	r30, r14
    2ec4:	b0 82       	st	Z, r11
    2ec6:	b8 82       	st	Y, r11
    2ec8:	0e 94 63 02 	call	0x4c6	; 0x4c6 <forward>
    2ecc:	68 e1       	ldi	r22, 0x18	; 24
    2ece:	71 e0       	ldi	r23, 0x01	; 1
    2ed0:	80 e0       	ldi	r24, 0x00	; 0
    2ed2:	90 e0       	ldi	r25, 0x00	; 0
    2ed4:	0e 94 a6 00 	call	0x14c	; 0x14c <delay>
    2ed8:	0e 94 71 02 	call	0x4e2	; 0x4e2 <right>
    2edc:	64 ef       	ldi	r22, 0xF4	; 244
    2ede:	71 e0       	ldi	r23, 0x01	; 1
    2ee0:	80 e0       	ldi	r24, 0x00	; 0
    2ee2:	90 e0       	ldi	r25, 0x00	; 0
    2ee4:	0e 94 a6 00 	call	0x14c	; 0x14c <delay>
    2ee8:	83 e0       	ldi	r24, 0x03	; 3
    2eea:	0e 94 79 02 	call	0x4f2	; 0x4f2 <ADC_Conversion>
    2eee:	86 39       	cpi	r24, 0x96	; 150
    2ef0:	d8 f3       	brcs	.-10     	; 0x2ee8 <followpath+0x7e6>
    2ef2:	0e 94 cd 02 	call	0x59a	; 0x59a <blackline_data>
    2ef6:	17 c0       	rjmp	.+46     	; 0x2f26 <followpath+0x824>
    2ef8:	62 e3       	ldi	r22, 0x32	; 50
    2efa:	70 e0       	ldi	r23, 0x00	; 0
    2efc:	80 e0       	ldi	r24, 0x00	; 0
    2efe:	90 e0       	ldi	r25, 0x00	; 0
    2f00:	0e 94 a6 00 	call	0x14c	; 0x14c <delay>
    2f04:	04 c0       	rjmp	.+8      	; 0x2f0e <followpath+0x80c>
    2f06:	0e 94 cd 02 	call	0x59a	; 0x59a <blackline_data>
    2f0a:	0e 94 e6 02 	call	0x5cc	; 0x5cc <blackline>
    2f0e:	80 91 72 02 	lds	r24, 0x0272	; 0x800272 <Left_white_line>
    2f12:	87 39       	cpi	r24, 0x97	; 151
    2f14:	20 f4       	brcc	.+8      	; 0x2f1e <followpath+0x81c>
    2f16:	80 91 70 02 	lds	r24, 0x0270	; 0x800270 <Right_white_line>
    2f1a:	87 39       	cpi	r24, 0x97	; 151
    2f1c:	a0 f3       	brcs	.-24     	; 0x2f06 <followpath+0x804>
    2f1e:	80 91 71 02 	lds	r24, 0x0271	; 0x800271 <Center_white_line>
    2f22:	87 39       	cpi	r24, 0x97	; 151
    2f24:	80 f3       	brcs	.-32     	; 0x2f06 <followpath+0x804>
    2f26:	80 91 72 02 	lds	r24, 0x0272	; 0x800272 <Left_white_line>
    2f2a:	87 39       	cpi	r24, 0x97	; 151
    2f2c:	08 f0       	brcs	.+2      	; 0x2f30 <followpath+0x82e>
    2f2e:	42 c2       	rjmp	.+1156   	; 0x33b4 <followpath+0xcb2>
    2f30:	80 91 70 02 	lds	r24, 0x0270	; 0x800270 <Right_white_line>
    2f34:	87 39       	cpi	r24, 0x97	; 151
    2f36:	08 f0       	brcs	.+2      	; 0x2f3a <followpath+0x838>
    2f38:	37 c2       	rjmp	.+1134   	; 0x33a8 <followpath+0xca6>
    2f3a:	de cf       	rjmp	.-68     	; 0x2ef8 <followpath+0x7f6>
    2f3c:	0e 94 80 04 	call	0x900	; 0x900 <node>
    2f40:	6e e1       	ldi	r22, 0x1E	; 30
    2f42:	70 e0       	ldi	r23, 0x00	; 0
    2f44:	80 e0       	ldi	r24, 0x00	; 0
    2f46:	90 e0       	ldi	r25, 0x00	; 0
    2f48:	0e 94 a6 00 	call	0x14c	; 0x14c <delay>
    2f4c:	f7 01       	movw	r30, r14
    2f4e:	a0 82       	st	Z, r10
    2f50:	a8 82       	st	Y, r10
    2f52:	0e 94 63 02 	call	0x4c6	; 0x4c6 <forward>
    2f56:	64 e6       	ldi	r22, 0x64	; 100
    2f58:	70 e0       	ldi	r23, 0x00	; 0
    2f5a:	80 e0       	ldi	r24, 0x00	; 0
    2f5c:	90 e0       	ldi	r25, 0x00	; 0
    2f5e:	0e 94 a6 00 	call	0x14c	; 0x14c <delay>
    2f62:	0e 94 66 02 	call	0x4cc	; 0x4cc <stop>
    2f66:	68 e8       	ldi	r22, 0x88	; 136
    2f68:	73 e1       	ldi	r23, 0x13	; 19
    2f6a:	80 e0       	ldi	r24, 0x00	; 0
    2f6c:	90 e0       	ldi	r25, 0x00	; 0
    2f6e:	0e 94 a6 00 	call	0x14c	; 0x14c <delay>
    2f72:	90 c1       	rjmp	.+800    	; 0x3294 <followpath+0xb92>
    2f74:	f7 01       	movw	r30, r14
    2f76:	b0 82       	st	Z, r11
    2f78:	b8 82       	st	Y, r11
    2f7a:	0e 94 63 02 	call	0x4c6	; 0x4c6 <forward>
    2f7e:	68 e1       	ldi	r22, 0x18	; 24
    2f80:	71 e0       	ldi	r23, 0x01	; 1
    2f82:	80 e0       	ldi	r24, 0x00	; 0
    2f84:	90 e0       	ldi	r25, 0x00	; 0
    2f86:	0e 94 a6 00 	call	0x14c	; 0x14c <delay>
    2f8a:	0e 94 cd 02 	call	0x59a	; 0x59a <blackline_data>
    2f8e:	17 c0       	rjmp	.+46     	; 0x2fbe <followpath+0x8bc>
    2f90:	62 e3       	ldi	r22, 0x32	; 50
    2f92:	70 e0       	ldi	r23, 0x00	; 0
    2f94:	80 e0       	ldi	r24, 0x00	; 0
    2f96:	90 e0       	ldi	r25, 0x00	; 0
    2f98:	0e 94 a6 00 	call	0x14c	; 0x14c <delay>
    2f9c:	04 c0       	rjmp	.+8      	; 0x2fa6 <followpath+0x8a4>
    2f9e:	0e 94 cd 02 	call	0x59a	; 0x59a <blackline_data>
    2fa2:	0e 94 e6 02 	call	0x5cc	; 0x5cc <blackline>
    2fa6:	80 91 72 02 	lds	r24, 0x0272	; 0x800272 <Left_white_line>
    2faa:	87 39       	cpi	r24, 0x97	; 151
    2fac:	20 f4       	brcc	.+8      	; 0x2fb6 <followpath+0x8b4>
    2fae:	80 91 70 02 	lds	r24, 0x0270	; 0x800270 <Right_white_line>
    2fb2:	87 39       	cpi	r24, 0x97	; 151
    2fb4:	a0 f3       	brcs	.-24     	; 0x2f9e <followpath+0x89c>
    2fb6:	80 91 71 02 	lds	r24, 0x0271	; 0x800271 <Center_white_line>
    2fba:	87 39       	cpi	r24, 0x97	; 151
    2fbc:	80 f3       	brcs	.-32     	; 0x2f9e <followpath+0x89c>
    2fbe:	80 91 72 02 	lds	r24, 0x0272	; 0x800272 <Left_white_line>
    2fc2:	87 39       	cpi	r24, 0x97	; 151
    2fc4:	08 f0       	brcs	.+2      	; 0x2fc8 <followpath+0x8c6>
    2fc6:	fc c1       	rjmp	.+1016   	; 0x33c0 <followpath+0xcbe>
    2fc8:	80 91 70 02 	lds	r24, 0x0270	; 0x800270 <Right_white_line>
    2fcc:	87 39       	cpi	r24, 0x97	; 151
    2fce:	08 f0       	brcs	.+2      	; 0x2fd2 <followpath+0x8d0>
    2fd0:	fd c1       	rjmp	.+1018   	; 0x33cc <followpath+0xcca>
    2fd2:	de cf       	rjmp	.-68     	; 0x2f90 <followpath+0x88e>
    2fd4:	0e 94 80 04 	call	0x900	; 0x900 <node>
    2fd8:	6e e1       	ldi	r22, 0x1E	; 30
    2fda:	70 e0       	ldi	r23, 0x00	; 0
    2fdc:	80 e0       	ldi	r24, 0x00	; 0
    2fde:	90 e0       	ldi	r25, 0x00	; 0
    2fe0:	0e 94 a6 00 	call	0x14c	; 0x14c <delay>
    2fe4:	0e 94 63 02 	call	0x4c6	; 0x4c6 <forward>
    2fe8:	f7 01       	movw	r30, r14
    2fea:	a0 82       	st	Z, r10
    2fec:	a8 82       	st	Y, r10
    2fee:	0e 94 cd 02 	call	0x59a	; 0x59a <blackline_data>
    2ff2:	17 c0       	rjmp	.+46     	; 0x3022 <followpath+0x920>
    2ff4:	62 e3       	ldi	r22, 0x32	; 50
    2ff6:	70 e0       	ldi	r23, 0x00	; 0
    2ff8:	80 e0       	ldi	r24, 0x00	; 0
    2ffa:	90 e0       	ldi	r25, 0x00	; 0
    2ffc:	0e 94 a6 00 	call	0x14c	; 0x14c <delay>
    3000:	04 c0       	rjmp	.+8      	; 0x300a <followpath+0x908>
    3002:	0e 94 cd 02 	call	0x59a	; 0x59a <blackline_data>
    3006:	0e 94 e6 02 	call	0x5cc	; 0x5cc <blackline>
    300a:	80 91 72 02 	lds	r24, 0x0272	; 0x800272 <Left_white_line>
    300e:	87 39       	cpi	r24, 0x97	; 151
    3010:	20 f4       	brcc	.+8      	; 0x301a <followpath+0x918>
    3012:	80 91 70 02 	lds	r24, 0x0270	; 0x800270 <Right_white_line>
    3016:	87 39       	cpi	r24, 0x97	; 151
    3018:	a0 f3       	brcs	.-24     	; 0x3002 <followpath+0x900>
    301a:	80 91 71 02 	lds	r24, 0x0271	; 0x800271 <Center_white_line>
    301e:	87 39       	cpi	r24, 0x97	; 151
    3020:	80 f3       	brcs	.-32     	; 0x3002 <followpath+0x900>
    3022:	80 91 72 02 	lds	r24, 0x0272	; 0x800272 <Left_white_line>
    3026:	87 39       	cpi	r24, 0x97	; 151
    3028:	08 f0       	brcs	.+2      	; 0x302c <followpath+0x92a>
    302a:	d6 c1       	rjmp	.+940    	; 0x33d8 <followpath+0xcd6>
    302c:	80 91 70 02 	lds	r24, 0x0270	; 0x800270 <Right_white_line>
    3030:	87 39       	cpi	r24, 0x97	; 151
    3032:	08 f0       	brcs	.+2      	; 0x3036 <followpath+0x934>
    3034:	d7 c1       	rjmp	.+942    	; 0x33e4 <followpath+0xce2>
    3036:	de cf       	rjmp	.-68     	; 0x2ff4 <followpath+0x8f2>
    3038:	0e 94 80 04 	call	0x900	; 0x900 <node>
    303c:	6e e1       	ldi	r22, 0x1E	; 30
    303e:	70 e0       	ldi	r23, 0x00	; 0
    3040:	80 e0       	ldi	r24, 0x00	; 0
    3042:	90 e0       	ldi	r25, 0x00	; 0
    3044:	0e 94 a6 00 	call	0x14c	; 0x14c <delay>
    3048:	f7 01       	movw	r30, r14
    304a:	b0 82       	st	Z, r11
    304c:	b8 82       	st	Y, r11
    304e:	0e 94 63 02 	call	0x4c6	; 0x4c6 <forward>
    3052:	68 e1       	ldi	r22, 0x18	; 24
    3054:	71 e0       	ldi	r23, 0x01	; 1
    3056:	80 e0       	ldi	r24, 0x00	; 0
    3058:	90 e0       	ldi	r25, 0x00	; 0
    305a:	0e 94 a6 00 	call	0x14c	; 0x14c <delay>
    305e:	0e 94 71 02 	call	0x4e2	; 0x4e2 <right>
    3062:	83 e0       	ldi	r24, 0x03	; 3
    3064:	0e 94 79 02 	call	0x4f2	; 0x4f2 <ADC_Conversion>
    3068:	86 39       	cpi	r24, 0x96	; 150
    306a:	d8 f3       	brcs	.-10     	; 0x3062 <followpath+0x960>
    306c:	0e 94 cd 02 	call	0x59a	; 0x59a <blackline_data>
    3070:	17 c0       	rjmp	.+46     	; 0x30a0 <followpath+0x99e>
    3072:	62 e3       	ldi	r22, 0x32	; 50
    3074:	70 e0       	ldi	r23, 0x00	; 0
    3076:	80 e0       	ldi	r24, 0x00	; 0
    3078:	90 e0       	ldi	r25, 0x00	; 0
    307a:	0e 94 a6 00 	call	0x14c	; 0x14c <delay>
    307e:	04 c0       	rjmp	.+8      	; 0x3088 <followpath+0x986>
    3080:	0e 94 cd 02 	call	0x59a	; 0x59a <blackline_data>
    3084:	0e 94 e6 02 	call	0x5cc	; 0x5cc <blackline>
    3088:	80 91 72 02 	lds	r24, 0x0272	; 0x800272 <Left_white_line>
    308c:	87 39       	cpi	r24, 0x97	; 151
    308e:	20 f4       	brcc	.+8      	; 0x3098 <followpath+0x996>
    3090:	80 91 70 02 	lds	r24, 0x0270	; 0x800270 <Right_white_line>
    3094:	87 39       	cpi	r24, 0x97	; 151
    3096:	a0 f3       	brcs	.-24     	; 0x3080 <followpath+0x97e>
    3098:	80 91 71 02 	lds	r24, 0x0271	; 0x800271 <Center_white_line>
    309c:	87 39       	cpi	r24, 0x97	; 151
    309e:	80 f3       	brcs	.-32     	; 0x3080 <followpath+0x97e>
    30a0:	80 91 72 02 	lds	r24, 0x0272	; 0x800272 <Left_white_line>
    30a4:	87 39       	cpi	r24, 0x97	; 151
    30a6:	08 f0       	brcs	.+2      	; 0x30aa <followpath+0x9a8>
    30a8:	a3 c1       	rjmp	.+838    	; 0x33f0 <followpath+0xcee>
    30aa:	80 91 70 02 	lds	r24, 0x0270	; 0x800270 <Right_white_line>
    30ae:	87 39       	cpi	r24, 0x97	; 151
    30b0:	08 f0       	brcs	.+2      	; 0x30b4 <followpath+0x9b2>
    30b2:	a4 c1       	rjmp	.+840    	; 0x33fc <followpath+0xcfa>
    30b4:	de cf       	rjmp	.-68     	; 0x3072 <followpath+0x970>
    30b6:	0e 94 80 04 	call	0x900	; 0x900 <node>
    30ba:	6e e1       	ldi	r22, 0x1E	; 30
    30bc:	70 e0       	ldi	r23, 0x00	; 0
    30be:	80 e0       	ldi	r24, 0x00	; 0
    30c0:	90 e0       	ldi	r25, 0x00	; 0
    30c2:	0e 94 a6 00 	call	0x14c	; 0x14c <delay>
    30c6:	e6 c0       	rjmp	.+460    	; 0x3294 <followpath+0xb92>
    30c8:	f7 01       	movw	r30, r14
    30ca:	a0 82       	st	Z, r10
    30cc:	a8 82       	st	Y, r10
    30ce:	0e 94 63 02 	call	0x4c6	; 0x4c6 <forward>
    30d2:	60 e9       	ldi	r22, 0x90	; 144
    30d4:	71 e0       	ldi	r23, 0x01	; 1
    30d6:	80 e0       	ldi	r24, 0x00	; 0
    30d8:	90 e0       	ldi	r25, 0x00	; 0
    30da:	0e 94 a6 00 	call	0x14c	; 0x14c <delay>
    30de:	0e 94 69 02 	call	0x4d2	; 0x4d2 <left>
    30e2:	6c e2       	ldi	r22, 0x2C	; 44
    30e4:	71 e0       	ldi	r23, 0x01	; 1
    30e6:	80 e0       	ldi	r24, 0x00	; 0
    30e8:	90 e0       	ldi	r25, 0x00	; 0
    30ea:	0e 94 a6 00 	call	0x14c	; 0x14c <delay>
    30ee:	81 e0       	ldi	r24, 0x01	; 1
    30f0:	0e 94 79 02 	call	0x4f2	; 0x4f2 <ADC_Conversion>
    30f4:	86 39       	cpi	r24, 0x96	; 150
    30f6:	d8 f3       	brcs	.-10     	; 0x30ee <followpath+0x9ec>
    30f8:	0e 94 cd 02 	call	0x59a	; 0x59a <blackline_data>
    30fc:	17 c0       	rjmp	.+46     	; 0x312c <followpath+0xa2a>
    30fe:	62 e3       	ldi	r22, 0x32	; 50
    3100:	70 e0       	ldi	r23, 0x00	; 0
    3102:	80 e0       	ldi	r24, 0x00	; 0
    3104:	90 e0       	ldi	r25, 0x00	; 0
    3106:	0e 94 a6 00 	call	0x14c	; 0x14c <delay>
    310a:	04 c0       	rjmp	.+8      	; 0x3114 <followpath+0xa12>
    310c:	0e 94 cd 02 	call	0x59a	; 0x59a <blackline_data>
    3110:	0e 94 e6 02 	call	0x5cc	; 0x5cc <blackline>
    3114:	80 91 72 02 	lds	r24, 0x0272	; 0x800272 <Left_white_line>
    3118:	87 39       	cpi	r24, 0x97	; 151
    311a:	20 f4       	brcc	.+8      	; 0x3124 <followpath+0xa22>
    311c:	80 91 70 02 	lds	r24, 0x0270	; 0x800270 <Right_white_line>
    3120:	87 39       	cpi	r24, 0x97	; 151
    3122:	a0 f3       	brcs	.-24     	; 0x310c <followpath+0xa0a>
    3124:	80 91 71 02 	lds	r24, 0x0271	; 0x800271 <Center_white_line>
    3128:	87 39       	cpi	r24, 0x97	; 151
    312a:	80 f3       	brcs	.-32     	; 0x310c <followpath+0xa0a>
    312c:	80 91 72 02 	lds	r24, 0x0272	; 0x800272 <Left_white_line>
    3130:	87 39       	cpi	r24, 0x97	; 151
    3132:	08 f0       	brcs	.+2      	; 0x3136 <followpath+0xa34>
    3134:	6f c1       	rjmp	.+734    	; 0x3414 <followpath+0xd12>
    3136:	80 91 70 02 	lds	r24, 0x0270	; 0x800270 <Right_white_line>
    313a:	87 39       	cpi	r24, 0x97	; 151
    313c:	08 f0       	brcs	.+2      	; 0x3140 <followpath+0xa3e>
    313e:	64 c1       	rjmp	.+712    	; 0x3408 <followpath+0xd06>
    3140:	de cf       	rjmp	.-68     	; 0x30fe <followpath+0x9fc>
    3142:	0e 94 80 04 	call	0x900	; 0x900 <node>
    3146:	6e e1       	ldi	r22, 0x1E	; 30
    3148:	70 e0       	ldi	r23, 0x00	; 0
    314a:	80 e0       	ldi	r24, 0x00	; 0
    314c:	90 e0       	ldi	r25, 0x00	; 0
    314e:	0e 94 a6 00 	call	0x14c	; 0x14c <delay>
    3152:	a0 c0       	rjmp	.+320    	; 0x3294 <followpath+0xb92>
    3154:	f7 01       	movw	r30, r14
    3156:	b0 82       	st	Z, r11
    3158:	b8 82       	st	Y, r11
    315a:	0e 94 63 02 	call	0x4c6	; 0x4c6 <forward>
    315e:	68 e1       	ldi	r22, 0x18	; 24
    3160:	71 e0       	ldi	r23, 0x01	; 1
    3162:	80 e0       	ldi	r24, 0x00	; 0
    3164:	90 e0       	ldi	r25, 0x00	; 0
    3166:	0e 94 a6 00 	call	0x14c	; 0x14c <delay>
    316a:	0e 94 71 02 	call	0x4e2	; 0x4e2 <right>
    316e:	64 ef       	ldi	r22, 0xF4	; 244
    3170:	71 e0       	ldi	r23, 0x01	; 1
    3172:	80 e0       	ldi	r24, 0x00	; 0
    3174:	90 e0       	ldi	r25, 0x00	; 0
    3176:	0e 94 a6 00 	call	0x14c	; 0x14c <delay>
    317a:	83 e0       	ldi	r24, 0x03	; 3
    317c:	0e 94 79 02 	call	0x4f2	; 0x4f2 <ADC_Conversion>
    3180:	86 39       	cpi	r24, 0x96	; 150
    3182:	d8 f3       	brcs	.-10     	; 0x317a <followpath+0xa78>
    3184:	0e 94 cd 02 	call	0x59a	; 0x59a <blackline_data>
    3188:	17 c0       	rjmp	.+46     	; 0x31b8 <followpath+0xab6>
    318a:	62 e3       	ldi	r22, 0x32	; 50
    318c:	70 e0       	ldi	r23, 0x00	; 0
    318e:	80 e0       	ldi	r24, 0x00	; 0
    3190:	90 e0       	ldi	r25, 0x00	; 0
    3192:	0e 94 a6 00 	call	0x14c	; 0x14c <delay>
    3196:	04 c0       	rjmp	.+8      	; 0x31a0 <followpath+0xa9e>
    3198:	0e 94 cd 02 	call	0x59a	; 0x59a <blackline_data>
    319c:	0e 94 e6 02 	call	0x5cc	; 0x5cc <blackline>
    31a0:	80 91 72 02 	lds	r24, 0x0272	; 0x800272 <Left_white_line>
    31a4:	87 39       	cpi	r24, 0x97	; 151
    31a6:	20 f4       	brcc	.+8      	; 0x31b0 <followpath+0xaae>
    31a8:	80 91 70 02 	lds	r24, 0x0270	; 0x800270 <Right_white_line>
    31ac:	87 39       	cpi	r24, 0x97	; 151
    31ae:	a0 f3       	brcs	.-24     	; 0x3198 <followpath+0xa96>
    31b0:	80 91 71 02 	lds	r24, 0x0271	; 0x800271 <Center_white_line>
    31b4:	87 39       	cpi	r24, 0x97	; 151
    31b6:	80 f3       	brcs	.-32     	; 0x3198 <followpath+0xa96>
    31b8:	80 91 72 02 	lds	r24, 0x0272	; 0x800272 <Left_white_line>
    31bc:	87 39       	cpi	r24, 0x97	; 151
    31be:	08 f0       	brcs	.+2      	; 0x31c2 <followpath+0xac0>
    31c0:	2f c1       	rjmp	.+606    	; 0x3420 <followpath+0xd1e>
    31c2:	80 91 70 02 	lds	r24, 0x0270	; 0x800270 <Right_white_line>
    31c6:	87 39       	cpi	r24, 0x97	; 151
    31c8:	08 f0       	brcs	.+2      	; 0x31cc <followpath+0xaca>
    31ca:	30 c1       	rjmp	.+608    	; 0x342c <followpath+0xd2a>
    31cc:	de cf       	rjmp	.-68     	; 0x318a <followpath+0xa88>
    31ce:	6e e1       	ldi	r22, 0x1E	; 30
    31d0:	70 e0       	ldi	r23, 0x00	; 0
    31d2:	80 e0       	ldi	r24, 0x00	; 0
    31d4:	90 e0       	ldi	r25, 0x00	; 0
    31d6:	0e 94 a6 00 	call	0x14c	; 0x14c <delay>
    31da:	0e 94 63 02 	call	0x4c6	; 0x4c6 <forward>
    31de:	f7 01       	movw	r30, r14
    31e0:	a0 82       	st	Z, r10
    31e2:	a8 82       	st	Y, r10
    31e4:	68 ec       	ldi	r22, 0xC8	; 200
    31e6:	70 e0       	ldi	r23, 0x00	; 0
    31e8:	80 e0       	ldi	r24, 0x00	; 0
    31ea:	90 e0       	ldi	r25, 0x00	; 0
    31ec:	0e 94 a6 00 	call	0x14c	; 0x14c <delay>
    31f0:	0e 94 cd 02 	call	0x59a	; 0x59a <blackline_data>
    31f4:	17 c0       	rjmp	.+46     	; 0x3224 <followpath+0xb22>
    31f6:	62 e3       	ldi	r22, 0x32	; 50
    31f8:	70 e0       	ldi	r23, 0x00	; 0
    31fa:	80 e0       	ldi	r24, 0x00	; 0
    31fc:	90 e0       	ldi	r25, 0x00	; 0
    31fe:	0e 94 a6 00 	call	0x14c	; 0x14c <delay>
    3202:	04 c0       	rjmp	.+8      	; 0x320c <followpath+0xb0a>
    3204:	0e 94 cd 02 	call	0x59a	; 0x59a <blackline_data>
    3208:	0e 94 e6 02 	call	0x5cc	; 0x5cc <blackline>
    320c:	80 91 72 02 	lds	r24, 0x0272	; 0x800272 <Left_white_line>
    3210:	87 39       	cpi	r24, 0x97	; 151
    3212:	20 f4       	brcc	.+8      	; 0x321c <followpath+0xb1a>
    3214:	80 91 70 02 	lds	r24, 0x0270	; 0x800270 <Right_white_line>
    3218:	87 39       	cpi	r24, 0x97	; 151
    321a:	a0 f3       	brcs	.-24     	; 0x3204 <followpath+0xb02>
    321c:	80 91 71 02 	lds	r24, 0x0271	; 0x800271 <Center_white_line>
    3220:	87 39       	cpi	r24, 0x97	; 151
    3222:	80 f3       	brcs	.-32     	; 0x3204 <followpath+0xb02>
    3224:	80 91 72 02 	lds	r24, 0x0272	; 0x800272 <Left_white_line>
    3228:	87 39       	cpi	r24, 0x97	; 151
    322a:	08 f0       	brcs	.+2      	; 0x322e <followpath+0xb2c>
    322c:	0b c1       	rjmp	.+534    	; 0x3444 <followpath+0xd42>
    322e:	80 91 70 02 	lds	r24, 0x0270	; 0x800270 <Right_white_line>
    3232:	87 39       	cpi	r24, 0x97	; 151
    3234:	08 f0       	brcs	.+2      	; 0x3238 <followpath+0xb36>
    3236:	00 c1       	rjmp	.+512    	; 0x3438 <followpath+0xd36>
    3238:	de cf       	rjmp	.-68     	; 0x31f6 <followpath+0xaf4>
    323a:	0e 94 80 04 	call	0x900	; 0x900 <node>
    323e:	6e e1       	ldi	r22, 0x1E	; 30
    3240:	70 e0       	ldi	r23, 0x00	; 0
    3242:	80 e0       	ldi	r24, 0x00	; 0
    3244:	90 e0       	ldi	r25, 0x00	; 0
    3246:	0e 94 a6 00 	call	0x14c	; 0x14c <delay>
    324a:	f7 01       	movw	r30, r14
    324c:	a0 82       	st	Z, r10
    324e:	a8 82       	st	Y, r10
    3250:	0e 94 63 02 	call	0x4c6	; 0x4c6 <forward>
    3254:	64 e6       	ldi	r22, 0x64	; 100
    3256:	70 e0       	ldi	r23, 0x00	; 0
    3258:	80 e0       	ldi	r24, 0x00	; 0
    325a:	90 e0       	ldi	r25, 0x00	; 0
    325c:	0e 94 a6 00 	call	0x14c	; 0x14c <delay>
    3260:	0e 94 66 02 	call	0x4cc	; 0x4cc <stop>
    3264:	68 e8       	ldi	r22, 0x88	; 136
    3266:	73 e1       	ldi	r23, 0x13	; 19
    3268:	80 e0       	ldi	r24, 0x00	; 0
    326a:	90 e0       	ldi	r25, 0x00	; 0
    326c:	0e 94 a6 00 	call	0x14c	; 0x14c <delay>
    3270:	11 c0       	rjmp	.+34     	; 0x3294 <followpath+0xb92>
    3272:	61 e0       	ldi	r22, 0x01	; 1
    3274:	81 e0       	ldi	r24, 0x01	; 1
    3276:	0e 94 94 01 	call	0x328	; 0x328 <lcd_cursor>
    327a:	87 e5       	ldi	r24, 0x57	; 87
    327c:	92 e0       	ldi	r25, 0x02	; 2
    327e:	0e 94 af 01 	call	0x35e	; 0x35e <lcd_string>
    3282:	1f 92       	push	r1
    3284:	1f 92       	push	r1
    3286:	df 92       	push	r13
    3288:	cf 92       	push	r12
    328a:	3d d2       	rcall	.+1146   	; 0x3706 <printf>
    328c:	0f 90       	pop	r0
    328e:	0f 90       	pop	r0
    3290:	0f 90       	pop	r0
    3292:	0f 90       	pop	r0
    3294:	80 91 68 02 	lds	r24, 0x0268	; 0x800268 <__data_end>
    3298:	90 91 69 02 	lds	r25, 0x0269	; 0x800269 <__data_end+0x1>
    329c:	01 96       	adiw	r24, 0x01	; 1
    329e:	90 93 69 02 	sts	0x0269, r25	; 0x800269 <__data_end+0x1>
    32a2:	80 93 68 02 	sts	0x0268, r24	; 0x800268 <__data_end>
    32a6:	20 91 6c 02 	lds	r18, 0x026C	; 0x80026c <sizebot>
    32aa:	30 91 6d 02 	lds	r19, 0x026D	; 0x80026d <sizebot+0x1>
    32ae:	82 17       	cp	r24, r18
    32b0:	93 07       	cpc	r25, r19
    32b2:	0c f4       	brge	.+2      	; 0x32b6 <followpath+0xbb4>
    32b4:	6b ca       	rjmp	.-2858   	; 0x278c <followpath+0x8a>
    32b6:	cc c0       	rjmp	.+408    	; 0x3450 <followpath+0xd4e>
    32b8:	80 91 71 02 	lds	r24, 0x0271	; 0x800271 <Center_white_line>
    32bc:	87 39       	cpi	r24, 0x97	; 151
    32be:	08 f4       	brcc	.+2      	; 0x32c2 <followpath+0xbc0>
    32c0:	ea ca       	rjmp	.-2604   	; 0x2896 <followpath+0x194>
    32c2:	0b cb       	rjmp	.-2538   	; 0x28da <followpath+0x1d8>
    32c4:	80 91 71 02 	lds	r24, 0x0271	; 0x800271 <Center_white_line>
    32c8:	87 39       	cpi	r24, 0x97	; 151
    32ca:	08 f4       	brcc	.+2      	; 0x32ce <followpath+0xbcc>
    32cc:	e4 ca       	rjmp	.-2616   	; 0x2896 <followpath+0x194>
    32ce:	05 cb       	rjmp	.-2550   	; 0x28da <followpath+0x1d8>
    32d0:	80 91 71 02 	lds	r24, 0x0271	; 0x800271 <Center_white_line>
    32d4:	87 39       	cpi	r24, 0x97	; 151
    32d6:	08 f4       	brcc	.+2      	; 0x32da <followpath+0xbd8>
    32d8:	2e cb       	rjmp	.-2468   	; 0x2936 <followpath+0x234>
    32da:	4f cb       	rjmp	.-2402   	; 0x297a <followpath+0x278>
    32dc:	80 91 71 02 	lds	r24, 0x0271	; 0x800271 <Center_white_line>
    32e0:	87 39       	cpi	r24, 0x97	; 151
    32e2:	08 f4       	brcc	.+2      	; 0x32e6 <followpath+0xbe4>
    32e4:	28 cb       	rjmp	.-2480   	; 0x2936 <followpath+0x234>
    32e6:	49 cb       	rjmp	.-2414   	; 0x297a <followpath+0x278>
    32e8:	80 91 71 02 	lds	r24, 0x0271	; 0x800271 <Center_white_line>
    32ec:	87 39       	cpi	r24, 0x97	; 151
    32ee:	08 f4       	brcc	.+2      	; 0x32f2 <followpath+0xbf0>
    32f0:	68 cb       	rjmp	.-2352   	; 0x29c2 <followpath+0x2c0>
    32f2:	89 cb       	rjmp	.-2286   	; 0x2a06 <followpath+0x304>
    32f4:	80 91 71 02 	lds	r24, 0x0271	; 0x800271 <Center_white_line>
    32f8:	87 39       	cpi	r24, 0x97	; 151
    32fa:	08 f4       	brcc	.+2      	; 0x32fe <followpath+0xbfc>
    32fc:	62 cb       	rjmp	.-2364   	; 0x29c2 <followpath+0x2c0>
    32fe:	83 cb       	rjmp	.-2298   	; 0x2a06 <followpath+0x304>
    3300:	80 91 71 02 	lds	r24, 0x0271	; 0x800271 <Center_white_line>
    3304:	87 39       	cpi	r24, 0x97	; 151
    3306:	08 f4       	brcc	.+2      	; 0x330a <followpath+0xc08>
    3308:	2c cc       	rjmp	.-1960   	; 0x2b62 <followpath+0x460>
    330a:	4d cc       	rjmp	.-1894   	; 0x2ba6 <followpath+0x4a4>
    330c:	80 91 71 02 	lds	r24, 0x0271	; 0x800271 <Center_white_line>
    3310:	87 39       	cpi	r24, 0x97	; 151
    3312:	08 f4       	brcc	.+2      	; 0x3316 <followpath+0xc14>
    3314:	26 cc       	rjmp	.-1972   	; 0x2b62 <followpath+0x460>
    3316:	47 cc       	rjmp	.-1906   	; 0x2ba6 <followpath+0x4a4>
    3318:	80 91 71 02 	lds	r24, 0x0271	; 0x800271 <Center_white_line>
    331c:	87 39       	cpi	r24, 0x97	; 151
    331e:	08 f4       	brcc	.+2      	; 0x3322 <followpath+0xc20>
    3320:	50 cc       	rjmp	.-1888   	; 0x2bc2 <followpath+0x4c0>
    3322:	71 cc       	rjmp	.-1822   	; 0x2c06 <followpath+0x504>
    3324:	80 91 71 02 	lds	r24, 0x0271	; 0x800271 <Center_white_line>
    3328:	87 39       	cpi	r24, 0x97	; 151
    332a:	08 f4       	brcc	.+2      	; 0x332e <followpath+0xc2c>
    332c:	4a cc       	rjmp	.-1900   	; 0x2bc2 <followpath+0x4c0>
    332e:	6b cc       	rjmp	.-1834   	; 0x2c06 <followpath+0x504>
    3330:	80 91 71 02 	lds	r24, 0x0271	; 0x800271 <Center_white_line>
    3334:	87 39       	cpi	r24, 0x97	; 151
    3336:	08 f4       	brcc	.+2      	; 0x333a <followpath+0xc38>
    3338:	7a cc       	rjmp	.-1804   	; 0x2c2e <followpath+0x52c>
    333a:	9b cc       	rjmp	.-1738   	; 0x2c72 <followpath+0x570>
    333c:	80 91 71 02 	lds	r24, 0x0271	; 0x800271 <Center_white_line>
    3340:	87 39       	cpi	r24, 0x97	; 151
    3342:	08 f4       	brcc	.+2      	; 0x3346 <followpath+0xc44>
    3344:	74 cc       	rjmp	.-1816   	; 0x2c2e <followpath+0x52c>
    3346:	95 cc       	rjmp	.-1750   	; 0x2c72 <followpath+0x570>
    3348:	80 91 71 02 	lds	r24, 0x0271	; 0x800271 <Center_white_line>
    334c:	87 39       	cpi	r24, 0x97	; 151
    334e:	08 f4       	brcc	.+2      	; 0x3352 <followpath+0xc50>
    3350:	b4 cc       	rjmp	.-1688   	; 0x2cba <followpath+0x5b8>
    3352:	d5 cc       	rjmp	.-1622   	; 0x2cfe <followpath+0x5fc>
    3354:	80 91 71 02 	lds	r24, 0x0271	; 0x800271 <Center_white_line>
    3358:	87 39       	cpi	r24, 0x97	; 151
    335a:	08 f4       	brcc	.+2      	; 0x335e <followpath+0xc5c>
    335c:	ae cc       	rjmp	.-1700   	; 0x2cba <followpath+0x5b8>
    335e:	cf cc       	rjmp	.-1634   	; 0x2cfe <followpath+0x5fc>
    3360:	80 91 71 02 	lds	r24, 0x0271	; 0x800271 <Center_white_line>
    3364:	87 39       	cpi	r24, 0x97	; 151
    3366:	08 f4       	brcc	.+2      	; 0x336a <followpath+0xc68>
    3368:	f6 cc       	rjmp	.-1556   	; 0x2d56 <followpath+0x654>
    336a:	17 cd       	rjmp	.-1490   	; 0x2d9a <followpath+0x698>
    336c:	80 91 71 02 	lds	r24, 0x0271	; 0x800271 <Center_white_line>
    3370:	87 39       	cpi	r24, 0x97	; 151
    3372:	08 f4       	brcc	.+2      	; 0x3376 <followpath+0xc74>
    3374:	f0 cc       	rjmp	.-1568   	; 0x2d56 <followpath+0x654>
    3376:	11 cd       	rjmp	.-1502   	; 0x2d9a <followpath+0x698>
    3378:	80 91 71 02 	lds	r24, 0x0271	; 0x800271 <Center_white_line>
    337c:	87 39       	cpi	r24, 0x97	; 151
    337e:	08 f4       	brcc	.+2      	; 0x3382 <followpath+0xc80>
    3380:	25 cd       	rjmp	.-1462   	; 0x2dcc <followpath+0x6ca>
    3382:	46 cd       	rjmp	.-1396   	; 0x2e10 <followpath+0x70e>
    3384:	80 91 71 02 	lds	r24, 0x0271	; 0x800271 <Center_white_line>
    3388:	87 39       	cpi	r24, 0x97	; 151
    338a:	08 f4       	brcc	.+2      	; 0x338e <followpath+0xc8c>
    338c:	1f cd       	rjmp	.-1474   	; 0x2dcc <followpath+0x6ca>
    338e:	40 cd       	rjmp	.-1408   	; 0x2e10 <followpath+0x70e>
    3390:	80 91 71 02 	lds	r24, 0x0271	; 0x800271 <Center_white_line>
    3394:	87 39       	cpi	r24, 0x97	; 151
    3396:	08 f4       	brcc	.+2      	; 0x339a <followpath+0xc98>
    3398:	67 cd       	rjmp	.-1330   	; 0x2e68 <followpath+0x766>
    339a:	88 cd       	rjmp	.-1264   	; 0x2eac <followpath+0x7aa>
    339c:	80 91 71 02 	lds	r24, 0x0271	; 0x800271 <Center_white_line>
    33a0:	87 39       	cpi	r24, 0x97	; 151
    33a2:	08 f4       	brcc	.+2      	; 0x33a6 <followpath+0xca4>
    33a4:	61 cd       	rjmp	.-1342   	; 0x2e68 <followpath+0x766>
    33a6:	82 cd       	rjmp	.-1276   	; 0x2eac <followpath+0x7aa>
    33a8:	80 91 71 02 	lds	r24, 0x0271	; 0x800271 <Center_white_line>
    33ac:	87 39       	cpi	r24, 0x97	; 151
    33ae:	08 f4       	brcc	.+2      	; 0x33b2 <followpath+0xcb0>
    33b0:	a3 cd       	rjmp	.-1210   	; 0x2ef8 <followpath+0x7f6>
    33b2:	c4 cd       	rjmp	.-1144   	; 0x2f3c <followpath+0x83a>
    33b4:	80 91 71 02 	lds	r24, 0x0271	; 0x800271 <Center_white_line>
    33b8:	87 39       	cpi	r24, 0x97	; 151
    33ba:	08 f4       	brcc	.+2      	; 0x33be <followpath+0xcbc>
    33bc:	9d cd       	rjmp	.-1222   	; 0x2ef8 <followpath+0x7f6>
    33be:	be cd       	rjmp	.-1156   	; 0x2f3c <followpath+0x83a>
    33c0:	80 91 71 02 	lds	r24, 0x0271	; 0x800271 <Center_white_line>
    33c4:	87 39       	cpi	r24, 0x97	; 151
    33c6:	08 f4       	brcc	.+2      	; 0x33ca <followpath+0xcc8>
    33c8:	e3 cd       	rjmp	.-1082   	; 0x2f90 <followpath+0x88e>
    33ca:	04 ce       	rjmp	.-1016   	; 0x2fd4 <followpath+0x8d2>
    33cc:	80 91 71 02 	lds	r24, 0x0271	; 0x800271 <Center_white_line>
    33d0:	87 39       	cpi	r24, 0x97	; 151
    33d2:	08 f4       	brcc	.+2      	; 0x33d6 <followpath+0xcd4>
    33d4:	dd cd       	rjmp	.-1094   	; 0x2f90 <followpath+0x88e>
    33d6:	fe cd       	rjmp	.-1028   	; 0x2fd4 <followpath+0x8d2>
    33d8:	80 91 71 02 	lds	r24, 0x0271	; 0x800271 <Center_white_line>
    33dc:	87 39       	cpi	r24, 0x97	; 151
    33de:	08 f4       	brcc	.+2      	; 0x33e2 <followpath+0xce0>
    33e0:	09 ce       	rjmp	.-1006   	; 0x2ff4 <followpath+0x8f2>
    33e2:	2a ce       	rjmp	.-940    	; 0x3038 <followpath+0x936>
    33e4:	80 91 71 02 	lds	r24, 0x0271	; 0x800271 <Center_white_line>
    33e8:	87 39       	cpi	r24, 0x97	; 151
    33ea:	08 f4       	brcc	.+2      	; 0x33ee <followpath+0xcec>
    33ec:	03 ce       	rjmp	.-1018   	; 0x2ff4 <followpath+0x8f2>
    33ee:	24 ce       	rjmp	.-952    	; 0x3038 <followpath+0x936>
    33f0:	80 91 71 02 	lds	r24, 0x0271	; 0x800271 <Center_white_line>
    33f4:	87 39       	cpi	r24, 0x97	; 151
    33f6:	08 f4       	brcc	.+2      	; 0x33fa <followpath+0xcf8>
    33f8:	3c ce       	rjmp	.-904    	; 0x3072 <followpath+0x970>
    33fa:	5d ce       	rjmp	.-838    	; 0x30b6 <followpath+0x9b4>
    33fc:	80 91 71 02 	lds	r24, 0x0271	; 0x800271 <Center_white_line>
    3400:	87 39       	cpi	r24, 0x97	; 151
    3402:	08 f4       	brcc	.+2      	; 0x3406 <followpath+0xd04>
    3404:	36 ce       	rjmp	.-916    	; 0x3072 <followpath+0x970>
    3406:	57 ce       	rjmp	.-850    	; 0x30b6 <followpath+0x9b4>
    3408:	80 91 71 02 	lds	r24, 0x0271	; 0x800271 <Center_white_line>
    340c:	87 39       	cpi	r24, 0x97	; 151
    340e:	08 f4       	brcc	.+2      	; 0x3412 <followpath+0xd10>
    3410:	76 ce       	rjmp	.-788    	; 0x30fe <followpath+0x9fc>
    3412:	97 ce       	rjmp	.-722    	; 0x3142 <followpath+0xa40>
    3414:	80 91 71 02 	lds	r24, 0x0271	; 0x800271 <Center_white_line>
    3418:	87 39       	cpi	r24, 0x97	; 151
    341a:	08 f4       	brcc	.+2      	; 0x341e <followpath+0xd1c>
    341c:	70 ce       	rjmp	.-800    	; 0x30fe <followpath+0x9fc>
    341e:	91 ce       	rjmp	.-734    	; 0x3142 <followpath+0xa40>
    3420:	80 91 71 02 	lds	r24, 0x0271	; 0x800271 <Center_white_line>
    3424:	87 39       	cpi	r24, 0x97	; 151
    3426:	08 f4       	brcc	.+2      	; 0x342a <followpath+0xd28>
    3428:	b0 ce       	rjmp	.-672    	; 0x318a <followpath+0xa88>
    342a:	d1 ce       	rjmp	.-606    	; 0x31ce <followpath+0xacc>
    342c:	80 91 71 02 	lds	r24, 0x0271	; 0x800271 <Center_white_line>
    3430:	87 39       	cpi	r24, 0x97	; 151
    3432:	08 f4       	brcc	.+2      	; 0x3436 <followpath+0xd34>
    3434:	aa ce       	rjmp	.-684    	; 0x318a <followpath+0xa88>
    3436:	cb ce       	rjmp	.-618    	; 0x31ce <followpath+0xacc>
    3438:	80 91 71 02 	lds	r24, 0x0271	; 0x800271 <Center_white_line>
    343c:	87 39       	cpi	r24, 0x97	; 151
    343e:	08 f4       	brcc	.+2      	; 0x3442 <followpath+0xd40>
    3440:	da ce       	rjmp	.-588    	; 0x31f6 <followpath+0xaf4>
    3442:	fb ce       	rjmp	.-522    	; 0x323a <followpath+0xb38>
    3444:	80 91 71 02 	lds	r24, 0x0271	; 0x800271 <Center_white_line>
    3448:	87 39       	cpi	r24, 0x97	; 151
    344a:	08 f4       	brcc	.+2      	; 0x344e <followpath+0xd4c>
    344c:	d4 ce       	rjmp	.-600    	; 0x31f6 <followpath+0xaf4>
    344e:	f5 ce       	rjmp	.-534    	; 0x323a <followpath+0xb38>
    3450:	80 e0       	ldi	r24, 0x00	; 0
    3452:	90 e0       	ldi	r25, 0x00	; 0
    3454:	df 91       	pop	r29
    3456:	cf 91       	pop	r28
    3458:	1f 91       	pop	r17
    345a:	0f 91       	pop	r16
    345c:	ff 90       	pop	r15
    345e:	ef 90       	pop	r14
    3460:	df 90       	pop	r13
    3462:	cf 90       	pop	r12
    3464:	bf 90       	pop	r11
    3466:	af 90       	pop	r10
    3468:	9f 90       	pop	r9
    346a:	8f 90       	pop	r8
    346c:	08 95       	ret

0000346e <get_path>:
    346e:	10 92 6b 02 	sts	0x026B, r1	; 0x80026b <pushvarible+0x1>
    3472:	10 92 6a 02 	sts	0x026A, r1	; 0x80026a <pushvarible>
    3476:	70 93 43 03 	sts	0x0343, r23	; 0x800343 <destination1+0x1>
    347a:	60 93 42 03 	sts	0x0342, r22	; 0x800342 <destination1>
    347e:	41 c9       	rjmp	.-3454   	; 0x2702 <followpath>
    3480:	08 95       	ret

00003482 <pick>:
    3482:	cf 92       	push	r12
    3484:	df 92       	push	r13
    3486:	ef 92       	push	r14
    3488:	ff 92       	push	r15
    348a:	0f 93       	push	r16
    348c:	1f 93       	push	r17
    348e:	cf 93       	push	r28
    3490:	df 93       	push	r29
    3492:	0f 2e       	mov	r0, r31
    3494:	fb e9       	ldi	r31, 0x9B	; 155
    3496:	cf 2e       	mov	r12, r31
    3498:	d1 2c       	mov	r13, r1
    349a:	f0 2d       	mov	r31, r0
    349c:	f6 01       	movw	r30, r12
    349e:	10 82       	st	Z, r1
    34a0:	0f 2e       	mov	r0, r31
    34a2:	fa e9       	ldi	r31, 0x9A	; 154
    34a4:	ef 2e       	mov	r14, r31
    34a6:	f1 2c       	mov	r15, r1
    34a8:	f0 2d       	mov	r31, r0
    34aa:	83 e4       	ldi	r24, 0x43	; 67
    34ac:	f7 01       	movw	r30, r14
    34ae:	80 83       	st	Z, r24
    34b0:	ff ef       	ldi	r31, 0xFF	; 255
    34b2:	28 e0       	ldi	r18, 0x08	; 8
    34b4:	3d e3       	ldi	r19, 0x3D	; 61
    34b6:	f1 50       	subi	r31, 0x01	; 1
    34b8:	20 40       	sbci	r18, 0x00	; 0
    34ba:	30 40       	sbci	r19, 0x00	; 0
    34bc:	e1 f7       	brne	.-8      	; 0x34b6 <pick+0x34>
    34be:	00 c0       	rjmp	.+0      	; 0x34c0 <pick+0x3e>
    34c0:	00 00       	nop
    34c2:	0e 94 1a 01 	call	0x234	; 0x234 <servo_1_free>
    34c6:	0d e9       	ldi	r16, 0x9D	; 157
    34c8:	10 e0       	ldi	r17, 0x00	; 0
    34ca:	f8 01       	movw	r30, r16
    34cc:	10 82       	st	Z, r1
    34ce:	cc e9       	ldi	r28, 0x9C	; 156
    34d0:	d0 e0       	ldi	r29, 0x00	; 0
    34d2:	83 e5       	ldi	r24, 0x53	; 83
    34d4:	88 83       	st	Y, r24
    34d6:	ff ef       	ldi	r31, 0xFF	; 255
    34d8:	28 e0       	ldi	r18, 0x08	; 8
    34da:	3d e3       	ldi	r19, 0x3D	; 61
    34dc:	f1 50       	subi	r31, 0x01	; 1
    34de:	20 40       	sbci	r18, 0x00	; 0
    34e0:	30 40       	sbci	r19, 0x00	; 0
    34e2:	e1 f7       	brne	.-8      	; 0x34dc <pick+0x5a>
    34e4:	00 c0       	rjmp	.+0      	; 0x34e6 <pick+0x64>
    34e6:	00 00       	nop
    34e8:	0e 94 21 01 	call	0x242	; 0x242 <servo_2_free>
    34ec:	f6 01       	movw	r30, r12
    34ee:	10 82       	st	Z, r1
    34f0:	83 e2       	ldi	r24, 0x23	; 35
    34f2:	f7 01       	movw	r30, r14
    34f4:	80 83       	st	Z, r24
    34f6:	ff ef       	ldi	r31, 0xFF	; 255
    34f8:	28 e0       	ldi	r18, 0x08	; 8
    34fa:	3d e3       	ldi	r19, 0x3D	; 61
    34fc:	f1 50       	subi	r31, 0x01	; 1
    34fe:	20 40       	sbci	r18, 0x00	; 0
    3500:	30 40       	sbci	r19, 0x00	; 0
    3502:	e1 f7       	brne	.-8      	; 0x34fc <pick+0x7a>
    3504:	00 c0       	rjmp	.+0      	; 0x3506 <pick+0x84>
    3506:	00 00       	nop
    3508:	f8 01       	movw	r30, r16
    350a:	10 82       	st	Z, r1
    350c:	88 83       	st	Y, r24
    350e:	ff ef       	ldi	r31, 0xFF	; 255
    3510:	28 e0       	ldi	r18, 0x08	; 8
    3512:	3d e3       	ldi	r19, 0x3D	; 61
    3514:	f1 50       	subi	r31, 0x01	; 1
    3516:	20 40       	sbci	r18, 0x00	; 0
    3518:	30 40       	sbci	r19, 0x00	; 0
    351a:	e1 f7       	brne	.-8      	; 0x3514 <pick+0x92>
    351c:	00 c0       	rjmp	.+0      	; 0x351e <pick+0x9c>
    351e:	00 00       	nop
    3520:	0e 94 21 01 	call	0x242	; 0x242 <servo_2_free>
    3524:	df 91       	pop	r29
    3526:	cf 91       	pop	r28
    3528:	1f 91       	pop	r17
    352a:	0f 91       	pop	r16
    352c:	ff 90       	pop	r15
    352e:	ef 90       	pop	r14
    3530:	df 90       	pop	r13
    3532:	cf 90       	pop	r12
    3534:	08 95       	ret

00003536 <place>:
    3536:	cf 92       	push	r12
    3538:	df 92       	push	r13
    353a:	ef 92       	push	r14
    353c:	ff 92       	push	r15
    353e:	0f 93       	push	r16
    3540:	1f 93       	push	r17
    3542:	cf 93       	push	r28
    3544:	df 93       	push	r29
    3546:	0d e9       	ldi	r16, 0x9D	; 157
    3548:	10 e0       	ldi	r17, 0x00	; 0
    354a:	f8 01       	movw	r30, r16
    354c:	10 82       	st	Z, r1
    354e:	0f 2e       	mov	r0, r31
    3550:	fc e9       	ldi	r31, 0x9C	; 156
    3552:	cf 2e       	mov	r12, r31
    3554:	d1 2c       	mov	r13, r1
    3556:	f0 2d       	mov	r31, r0
    3558:	83 e5       	ldi	r24, 0x53	; 83
    355a:	f6 01       	movw	r30, r12
    355c:	80 83       	st	Z, r24
    355e:	ff ef       	ldi	r31, 0xFF	; 255
    3560:	28 e0       	ldi	r18, 0x08	; 8
    3562:	8d e3       	ldi	r24, 0x3D	; 61
    3564:	f1 50       	subi	r31, 0x01	; 1
    3566:	20 40       	sbci	r18, 0x00	; 0
    3568:	80 40       	sbci	r24, 0x00	; 0
    356a:	e1 f7       	brne	.-8      	; 0x3564 <place+0x2e>
    356c:	00 c0       	rjmp	.+0      	; 0x356e <place+0x38>
    356e:	00 00       	nop
    3570:	0e 94 21 01 	call	0x242	; 0x242 <servo_2_free>
    3574:	0f 2e       	mov	r0, r31
    3576:	fb e9       	ldi	r31, 0x9B	; 155
    3578:	ef 2e       	mov	r14, r31
    357a:	f1 2c       	mov	r15, r1
    357c:	f0 2d       	mov	r31, r0
    357e:	f7 01       	movw	r30, r14
    3580:	10 82       	st	Z, r1
    3582:	ca e9       	ldi	r28, 0x9A	; 154
    3584:	d0 e0       	ldi	r29, 0x00	; 0
    3586:	83 e4       	ldi	r24, 0x43	; 67
    3588:	88 83       	st	Y, r24
    358a:	ff ef       	ldi	r31, 0xFF	; 255
    358c:	28 e0       	ldi	r18, 0x08	; 8
    358e:	8d e3       	ldi	r24, 0x3D	; 61
    3590:	f1 50       	subi	r31, 0x01	; 1
    3592:	20 40       	sbci	r18, 0x00	; 0
    3594:	80 40       	sbci	r24, 0x00	; 0
    3596:	e1 f7       	brne	.-8      	; 0x3590 <place+0x5a>
    3598:	00 c0       	rjmp	.+0      	; 0x359a <place+0x64>
    359a:	00 00       	nop
    359c:	0e 94 1a 01 	call	0x234	; 0x234 <servo_1_free>
    35a0:	f8 01       	movw	r30, r16
    35a2:	10 82       	st	Z, r1
    35a4:	13 e2       	ldi	r17, 0x23	; 35
    35a6:	f6 01       	movw	r30, r12
    35a8:	10 83       	st	Z, r17
    35aa:	ff ef       	ldi	r31, 0xFF	; 255
    35ac:	28 e0       	ldi	r18, 0x08	; 8
    35ae:	8d e3       	ldi	r24, 0x3D	; 61
    35b0:	f1 50       	subi	r31, 0x01	; 1
    35b2:	20 40       	sbci	r18, 0x00	; 0
    35b4:	80 40       	sbci	r24, 0x00	; 0
    35b6:	e1 f7       	brne	.-8      	; 0x35b0 <place+0x7a>
    35b8:	00 c0       	rjmp	.+0      	; 0x35ba <place+0x84>
    35ba:	00 00       	nop
    35bc:	0e 94 21 01 	call	0x242	; 0x242 <servo_2_free>
    35c0:	f7 01       	movw	r30, r14
    35c2:	10 82       	st	Z, r1
    35c4:	18 83       	st	Y, r17
    35c6:	ff ef       	ldi	r31, 0xFF	; 255
    35c8:	28 e0       	ldi	r18, 0x08	; 8
    35ca:	8d e3       	ldi	r24, 0x3D	; 61
    35cc:	f1 50       	subi	r31, 0x01	; 1
    35ce:	20 40       	sbci	r18, 0x00	; 0
    35d0:	80 40       	sbci	r24, 0x00	; 0
    35d2:	e1 f7       	brne	.-8      	; 0x35cc <place+0x96>
    35d4:	00 c0       	rjmp	.+0      	; 0x35d6 <place+0xa0>
    35d6:	00 00       	nop
    35d8:	0e 94 1a 01 	call	0x234	; 0x234 <servo_1_free>
    35dc:	df 91       	pop	r29
    35de:	cf 91       	pop	r28
    35e0:	1f 91       	pop	r17
    35e2:	0f 91       	pop	r16
    35e4:	ff 90       	pop	r15
    35e6:	ef 90       	pop	r14
    35e8:	df 90       	pop	r13
    35ea:	cf 90       	pop	r12
    35ec:	08 95       	ret

000035ee <main>:


int main (void)
{	
	
	init_devices();
    35ee:	0e 94 c6 02 	call	0x58c	; 0x58c <init_devices>
	lcd_init();
    35f2:	0e 94 89 01 	call	0x312	; 0x312 <lcd_init>
{
	//Output Scaling 20% from datasheet
	
	//set S0 high
	//set S1 high
    PORTB =  0x10;
    35f6:	80 e1       	ldi	r24, 0x10	; 16
    35f8:	85 b9       	out	0x05, r24	; 5
//delay(500);
//led_off();
pick();
*/

get_path(30,36);
    35fa:	64 e2       	ldi	r22, 0x24	; 36
    35fc:	70 e0       	ldi	r23, 0x00	; 0
    35fe:	8e e1       	ldi	r24, 0x1E	; 30
    3600:	90 e0       	ldi	r25, 0x00	; 0
    3602:	35 df       	rcall	.-406    	; 0x346e <get_path>
//blue_led_on();
//delay(500);
//led_off();
place();
    3604:	98 df       	rcall	.-208    	; 0x3536 <place>
    3606:	6f e1       	ldi	r22, 0x1F	; 31

get_path(36,31);
    3608:	70 e0       	ldi	r23, 0x00	; 0
    360a:	84 e2       	ldi	r24, 0x24	; 36
    360c:	90 e0       	ldi	r25, 0x00	; 0
    360e:	2f df       	rcall	.-418    	; 0x346e <get_path>
//blue_led_on();
//delay(500);
//led_off();
pick();
    3610:	38 df       	rcall	.-400    	; 0x3482 <pick>
    3612:	65 e2       	ldi	r22, 0x25	; 37

get_path(31,37);
    3614:	70 e0       	ldi	r23, 0x00	; 0
    3616:	8f e1       	ldi	r24, 0x1F	; 31
    3618:	90 e0       	ldi	r25, 0x00	; 0
    361a:	29 df       	rcall	.-430    	; 0x346e <get_path>
//blue_led_on();
//delay(500);
//led_off();
place();
    361c:	8c df       	rcall	.-232    	; 0x3536 <place>

get_path(37,32);
    361e:	60 e2       	ldi	r22, 0x20	; 32
    3620:	70 e0       	ldi	r23, 0x00	; 0
    3622:	85 e2       	ldi	r24, 0x25	; 37
    3624:	90 e0       	ldi	r25, 0x00	; 0
    3626:	23 df       	rcall	.-442    	; 0x346e <get_path>
//blue_led_on();
//delay(500);
//led_off();
pick();
    3628:	2c df       	rcall	.-424    	; 0x3482 <pick>
    362a:	62 e2       	ldi	r22, 0x22	; 34

get_path(32,34);
    362c:	70 e0       	ldi	r23, 0x00	; 0
    362e:	80 e2       	ldi	r24, 0x20	; 32
    3630:	90 e0       	ldi	r25, 0x00	; 0
    3632:	1d df       	rcall	.-454    	; 0x346e <get_path>
//blue_led_on();
//delay(500);
//led_off();
place();
    3634:	80 df       	rcall	.-256    	; 0x3536 <place>
    3636:	61 e2       	ldi	r22, 0x21	; 33

get_path(34,33);
    3638:	70 e0       	ldi	r23, 0x00	; 0
    363a:	82 e2       	ldi	r24, 0x22	; 34
    363c:	90 e0       	ldi	r25, 0x00	; 0
    363e:	17 df       	rcall	.-466    	; 0x346e <get_path>
//blue_led_on();
//delay(500);
//led_off();
pick();
    3640:	20 df       	rcall	.-448    	; 0x3482 <pick>

get_path(33,35);
    3642:	63 e2       	ldi	r22, 0x23	; 35
    3644:	70 e0       	ldi	r23, 0x00	; 0
    3646:	81 e2       	ldi	r24, 0x21	; 33
    3648:	90 e0       	ldi	r25, 0x00	; 0
    364a:	11 df       	rcall	.-478    	; 0x346e <get_path>
    364c:	74 df       	rcall	.-280    	; 0x3536 <place>
//blue_led_on();
//delay(500);
//led_off();
place();
    364e:	6b e1       	ldi	r22, 0x1B	; 27
    3650:	70 e0       	ldi	r23, 0x00	; 0

get_path(35,27);
    3652:	83 e2       	ldi	r24, 0x23	; 35
    3654:	90 e0       	ldi	r25, 0x00	; 0
    3656:	0b df       	rcall	.-490    	; 0x346e <get_path>
    3658:	0e 94 66 02 	call	0x4cc	; 0x4cc <stop>
    365c:	80 e0       	ldi	r24, 0x00	; 0
//blue_led_on();
//delay(500);
//led_off();
stop();
    365e:	90 e0       	ldi	r25, 0x00	; 0
    3660:	08 95       	ret

00003662 <__mulsi3>:

//blackline_data();
}
}
    3662:	db 01       	movw	r26, r22
    3664:	8f 93       	push	r24
    3666:	9f 93       	push	r25
    3668:	35 d0       	rcall	.+106    	; 0x36d4 <__muluhisi3>
    366a:	bf 91       	pop	r27
    366c:	af 91       	pop	r26
    366e:	a2 9f       	mul	r26, r18
    3670:	80 0d       	add	r24, r0
    3672:	91 1d       	adc	r25, r1
    3674:	a3 9f       	mul	r26, r19
    3676:	90 0d       	add	r25, r0
    3678:	b2 9f       	mul	r27, r18
    367a:	90 0d       	add	r25, r0
    367c:	11 24       	eor	r1, r1
    367e:	08 95       	ret

00003680 <__udivmodsi4>:
    3680:	a1 e2       	ldi	r26, 0x21	; 33
    3682:	1a 2e       	mov	r1, r26
    3684:	aa 1b       	sub	r26, r26
    3686:	bb 1b       	sub	r27, r27
    3688:	fd 01       	movw	r30, r26
    368a:	0d c0       	rjmp	.+26     	; 0x36a6 <__udivmodsi4_ep>

0000368c <__udivmodsi4_loop>:
    368c:	aa 1f       	adc	r26, r26
    368e:	bb 1f       	adc	r27, r27
    3690:	ee 1f       	adc	r30, r30
    3692:	ff 1f       	adc	r31, r31
    3694:	a2 17       	cp	r26, r18
    3696:	b3 07       	cpc	r27, r19
    3698:	e4 07       	cpc	r30, r20
    369a:	f5 07       	cpc	r31, r21
    369c:	20 f0       	brcs	.+8      	; 0x36a6 <__udivmodsi4_ep>
    369e:	a2 1b       	sub	r26, r18
    36a0:	b3 0b       	sbc	r27, r19
    36a2:	e4 0b       	sbc	r30, r20
    36a4:	f5 0b       	sbc	r31, r21

000036a6 <__udivmodsi4_ep>:
    36a6:	66 1f       	adc	r22, r22
    36a8:	77 1f       	adc	r23, r23
    36aa:	88 1f       	adc	r24, r24
    36ac:	99 1f       	adc	r25, r25
    36ae:	1a 94       	dec	r1
    36b0:	69 f7       	brne	.-38     	; 0x368c <__udivmodsi4_loop>
    36b2:	60 95       	com	r22
    36b4:	70 95       	com	r23
    36b6:	80 95       	com	r24
    36b8:	90 95       	com	r25
    36ba:	9b 01       	movw	r18, r22
    36bc:	ac 01       	movw	r20, r24
    36be:	bd 01       	movw	r22, r26
    36c0:	cf 01       	movw	r24, r30
    36c2:	08 95       	ret

000036c4 <__tablejump2__>:
    36c4:	ee 0f       	add	r30, r30
    36c6:	ff 1f       	adc	r31, r31
    36c8:	88 1f       	adc	r24, r24
    36ca:	8b bf       	out	0x3b, r24	; 59
    36cc:	07 90       	elpm	r0, Z+
    36ce:	f6 91       	elpm	r31, Z
    36d0:	e0 2d       	mov	r30, r0
    36d2:	19 94       	eijmp

000036d4 <__muluhisi3>:
    36d4:	09 d0       	rcall	.+18     	; 0x36e8 <__umulhisi3>
    36d6:	a5 9f       	mul	r26, r21
    36d8:	90 0d       	add	r25, r0
    36da:	b4 9f       	mul	r27, r20
    36dc:	90 0d       	add	r25, r0
    36de:	a4 9f       	mul	r26, r20
    36e0:	80 0d       	add	r24, r0
    36e2:	91 1d       	adc	r25, r1
    36e4:	11 24       	eor	r1, r1
    36e6:	08 95       	ret

000036e8 <__umulhisi3>:
    36e8:	a2 9f       	mul	r26, r18
    36ea:	b0 01       	movw	r22, r0
    36ec:	b3 9f       	mul	r27, r19
    36ee:	c0 01       	movw	r24, r0
    36f0:	a3 9f       	mul	r26, r19
    36f2:	70 0d       	add	r23, r0
    36f4:	81 1d       	adc	r24, r1
    36f6:	11 24       	eor	r1, r1
    36f8:	91 1d       	adc	r25, r1
    36fa:	b2 9f       	mul	r27, r18
    36fc:	70 0d       	add	r23, r0
    36fe:	81 1d       	adc	r24, r1
    3700:	11 24       	eor	r1, r1
    3702:	91 1d       	adc	r25, r1
    3704:	08 95       	ret

00003706 <printf>:
    3706:	cf 93       	push	r28
    3708:	df 93       	push	r29
    370a:	cd b7       	in	r28, 0x3d	; 61
    370c:	de b7       	in	r29, 0x3e	; 62
    370e:	ae 01       	movw	r20, r28
    3710:	4a 5f       	subi	r20, 0xFA	; 250
    3712:	5f 4f       	sbci	r21, 0xFF	; 255
    3714:	fa 01       	movw	r30, r20
    3716:	61 91       	ld	r22, Z+
    3718:	71 91       	ld	r23, Z+
    371a:	af 01       	movw	r20, r30
    371c:	80 91 4d 03 	lds	r24, 0x034D	; 0x80034d <__iob+0x2>
    3720:	90 91 4e 03 	lds	r25, 0x034E	; 0x80034e <__iob+0x3>
    3724:	03 d0       	rcall	.+6      	; 0x372c <vfprintf>
    3726:	df 91       	pop	r29
    3728:	cf 91       	pop	r28
    372a:	08 95       	ret

0000372c <vfprintf>:
    372c:	2f 92       	push	r2
    372e:	3f 92       	push	r3
    3730:	4f 92       	push	r4
    3732:	5f 92       	push	r5
    3734:	6f 92       	push	r6
    3736:	7f 92       	push	r7
    3738:	8f 92       	push	r8
    373a:	9f 92       	push	r9
    373c:	af 92       	push	r10
    373e:	bf 92       	push	r11
    3740:	cf 92       	push	r12
    3742:	df 92       	push	r13
    3744:	ef 92       	push	r14
    3746:	ff 92       	push	r15
    3748:	0f 93       	push	r16
    374a:	1f 93       	push	r17
    374c:	cf 93       	push	r28
    374e:	df 93       	push	r29
    3750:	cd b7       	in	r28, 0x3d	; 61
    3752:	de b7       	in	r29, 0x3e	; 62
    3754:	2b 97       	sbiw	r28, 0x0b	; 11
    3756:	0f b6       	in	r0, 0x3f	; 63
    3758:	f8 94       	cli
    375a:	de bf       	out	0x3e, r29	; 62
    375c:	0f be       	out	0x3f, r0	; 63
    375e:	cd bf       	out	0x3d, r28	; 61
    3760:	6c 01       	movw	r12, r24
    3762:	7b 01       	movw	r14, r22
    3764:	8a 01       	movw	r16, r20
    3766:	fc 01       	movw	r30, r24
    3768:	17 82       	std	Z+7, r1	; 0x07
    376a:	16 82       	std	Z+6, r1	; 0x06
    376c:	83 81       	ldd	r24, Z+3	; 0x03
    376e:	81 ff       	sbrs	r24, 1
    3770:	bf c1       	rjmp	.+894    	; 0x3af0 <vfprintf+0x3c4>
    3772:	ce 01       	movw	r24, r28
    3774:	01 96       	adiw	r24, 0x01	; 1
    3776:	3c 01       	movw	r6, r24
    3778:	f6 01       	movw	r30, r12
    377a:	93 81       	ldd	r25, Z+3	; 0x03
    377c:	f7 01       	movw	r30, r14
    377e:	93 fd       	sbrc	r25, 3
    3780:	85 91       	lpm	r24, Z+
    3782:	93 ff       	sbrs	r25, 3
    3784:	81 91       	ld	r24, Z+
    3786:	7f 01       	movw	r14, r30
    3788:	88 23       	and	r24, r24
    378a:	09 f4       	brne	.+2      	; 0x378e <vfprintf+0x62>
    378c:	ad c1       	rjmp	.+858    	; 0x3ae8 <vfprintf+0x3bc>
    378e:	85 32       	cpi	r24, 0x25	; 37
    3790:	39 f4       	brne	.+14     	; 0x37a0 <vfprintf+0x74>
    3792:	93 fd       	sbrc	r25, 3
    3794:	85 91       	lpm	r24, Z+
    3796:	93 ff       	sbrs	r25, 3
    3798:	81 91       	ld	r24, Z+
    379a:	7f 01       	movw	r14, r30
    379c:	85 32       	cpi	r24, 0x25	; 37
    379e:	21 f4       	brne	.+8      	; 0x37a8 <vfprintf+0x7c>
    37a0:	b6 01       	movw	r22, r12
    37a2:	90 e0       	ldi	r25, 0x00	; 0
    37a4:	d6 d1       	rcall	.+940    	; 0x3b52 <fputc>
    37a6:	e8 cf       	rjmp	.-48     	; 0x3778 <vfprintf+0x4c>
    37a8:	91 2c       	mov	r9, r1
    37aa:	21 2c       	mov	r2, r1
    37ac:	31 2c       	mov	r3, r1
    37ae:	ff e1       	ldi	r31, 0x1F	; 31
    37b0:	f3 15       	cp	r31, r3
    37b2:	d8 f0       	brcs	.+54     	; 0x37ea <vfprintf+0xbe>
    37b4:	8b 32       	cpi	r24, 0x2B	; 43
    37b6:	79 f0       	breq	.+30     	; 0x37d6 <vfprintf+0xaa>
    37b8:	38 f4       	brcc	.+14     	; 0x37c8 <vfprintf+0x9c>
    37ba:	80 32       	cpi	r24, 0x20	; 32
    37bc:	79 f0       	breq	.+30     	; 0x37dc <vfprintf+0xb0>
    37be:	83 32       	cpi	r24, 0x23	; 35
    37c0:	a1 f4       	brne	.+40     	; 0x37ea <vfprintf+0xbe>
    37c2:	23 2d       	mov	r18, r3
    37c4:	20 61       	ori	r18, 0x10	; 16
    37c6:	1d c0       	rjmp	.+58     	; 0x3802 <vfprintf+0xd6>
    37c8:	8d 32       	cpi	r24, 0x2D	; 45
    37ca:	61 f0       	breq	.+24     	; 0x37e4 <vfprintf+0xb8>
    37cc:	80 33       	cpi	r24, 0x30	; 48
    37ce:	69 f4       	brne	.+26     	; 0x37ea <vfprintf+0xbe>
    37d0:	23 2d       	mov	r18, r3
    37d2:	21 60       	ori	r18, 0x01	; 1
    37d4:	16 c0       	rjmp	.+44     	; 0x3802 <vfprintf+0xd6>
    37d6:	83 2d       	mov	r24, r3
    37d8:	82 60       	ori	r24, 0x02	; 2
    37da:	38 2e       	mov	r3, r24
    37dc:	e3 2d       	mov	r30, r3
    37de:	e4 60       	ori	r30, 0x04	; 4
    37e0:	3e 2e       	mov	r3, r30
    37e2:	2a c0       	rjmp	.+84     	; 0x3838 <vfprintf+0x10c>
    37e4:	f3 2d       	mov	r31, r3
    37e6:	f8 60       	ori	r31, 0x08	; 8
    37e8:	1d c0       	rjmp	.+58     	; 0x3824 <vfprintf+0xf8>
    37ea:	37 fc       	sbrc	r3, 7
    37ec:	2d c0       	rjmp	.+90     	; 0x3848 <vfprintf+0x11c>
    37ee:	20 ed       	ldi	r18, 0xD0	; 208
    37f0:	28 0f       	add	r18, r24
    37f2:	2a 30       	cpi	r18, 0x0A	; 10
    37f4:	40 f0       	brcs	.+16     	; 0x3806 <vfprintf+0xda>
    37f6:	8e 32       	cpi	r24, 0x2E	; 46
    37f8:	b9 f4       	brne	.+46     	; 0x3828 <vfprintf+0xfc>
    37fa:	36 fc       	sbrc	r3, 6
    37fc:	75 c1       	rjmp	.+746    	; 0x3ae8 <vfprintf+0x3bc>
    37fe:	23 2d       	mov	r18, r3
    3800:	20 64       	ori	r18, 0x40	; 64
    3802:	32 2e       	mov	r3, r18
    3804:	19 c0       	rjmp	.+50     	; 0x3838 <vfprintf+0x10c>
    3806:	36 fe       	sbrs	r3, 6
    3808:	06 c0       	rjmp	.+12     	; 0x3816 <vfprintf+0xea>
    380a:	8a e0       	ldi	r24, 0x0A	; 10
    380c:	98 9e       	mul	r9, r24
    380e:	20 0d       	add	r18, r0
    3810:	11 24       	eor	r1, r1
    3812:	92 2e       	mov	r9, r18
    3814:	11 c0       	rjmp	.+34     	; 0x3838 <vfprintf+0x10c>
    3816:	ea e0       	ldi	r30, 0x0A	; 10
    3818:	2e 9e       	mul	r2, r30
    381a:	20 0d       	add	r18, r0
    381c:	11 24       	eor	r1, r1
    381e:	22 2e       	mov	r2, r18
    3820:	f3 2d       	mov	r31, r3
    3822:	f0 62       	ori	r31, 0x20	; 32
    3824:	3f 2e       	mov	r3, r31
    3826:	08 c0       	rjmp	.+16     	; 0x3838 <vfprintf+0x10c>
    3828:	8c 36       	cpi	r24, 0x6C	; 108
    382a:	21 f4       	brne	.+8      	; 0x3834 <vfprintf+0x108>
    382c:	83 2d       	mov	r24, r3
    382e:	80 68       	ori	r24, 0x80	; 128
    3830:	38 2e       	mov	r3, r24
    3832:	02 c0       	rjmp	.+4      	; 0x3838 <vfprintf+0x10c>
    3834:	88 36       	cpi	r24, 0x68	; 104
    3836:	41 f4       	brne	.+16     	; 0x3848 <vfprintf+0x11c>
    3838:	f7 01       	movw	r30, r14
    383a:	93 fd       	sbrc	r25, 3
    383c:	85 91       	lpm	r24, Z+
    383e:	93 ff       	sbrs	r25, 3
    3840:	81 91       	ld	r24, Z+
    3842:	7f 01       	movw	r14, r30
    3844:	81 11       	cpse	r24, r1
    3846:	b3 cf       	rjmp	.-154    	; 0x37ae <vfprintf+0x82>
    3848:	98 2f       	mov	r25, r24
    384a:	9f 7d       	andi	r25, 0xDF	; 223
    384c:	95 54       	subi	r25, 0x45	; 69
    384e:	93 30       	cpi	r25, 0x03	; 3
    3850:	28 f4       	brcc	.+10     	; 0x385c <vfprintf+0x130>
    3852:	0c 5f       	subi	r16, 0xFC	; 252
    3854:	1f 4f       	sbci	r17, 0xFF	; 255
    3856:	9f e3       	ldi	r25, 0x3F	; 63
    3858:	99 83       	std	Y+1, r25	; 0x01
    385a:	0d c0       	rjmp	.+26     	; 0x3876 <vfprintf+0x14a>
    385c:	83 36       	cpi	r24, 0x63	; 99
    385e:	31 f0       	breq	.+12     	; 0x386c <vfprintf+0x140>
    3860:	83 37       	cpi	r24, 0x73	; 115
    3862:	71 f0       	breq	.+28     	; 0x3880 <vfprintf+0x154>
    3864:	83 35       	cpi	r24, 0x53	; 83
    3866:	09 f0       	breq	.+2      	; 0x386a <vfprintf+0x13e>
    3868:	55 c0       	rjmp	.+170    	; 0x3914 <vfprintf+0x1e8>
    386a:	20 c0       	rjmp	.+64     	; 0x38ac <vfprintf+0x180>
    386c:	f8 01       	movw	r30, r16
    386e:	80 81       	ld	r24, Z
    3870:	89 83       	std	Y+1, r24	; 0x01
    3872:	0e 5f       	subi	r16, 0xFE	; 254
    3874:	1f 4f       	sbci	r17, 0xFF	; 255
    3876:	88 24       	eor	r8, r8
    3878:	83 94       	inc	r8
    387a:	91 2c       	mov	r9, r1
    387c:	53 01       	movw	r10, r6
    387e:	12 c0       	rjmp	.+36     	; 0x38a4 <vfprintf+0x178>
    3880:	28 01       	movw	r4, r16
    3882:	f2 e0       	ldi	r31, 0x02	; 2
    3884:	4f 0e       	add	r4, r31
    3886:	51 1c       	adc	r5, r1
    3888:	f8 01       	movw	r30, r16
    388a:	a0 80       	ld	r10, Z
    388c:	b1 80       	ldd	r11, Z+1	; 0x01
    388e:	36 fe       	sbrs	r3, 6
    3890:	03 c0       	rjmp	.+6      	; 0x3898 <vfprintf+0x16c>
    3892:	69 2d       	mov	r22, r9
    3894:	70 e0       	ldi	r23, 0x00	; 0
    3896:	02 c0       	rjmp	.+4      	; 0x389c <vfprintf+0x170>
    3898:	6f ef       	ldi	r22, 0xFF	; 255
    389a:	7f ef       	ldi	r23, 0xFF	; 255
    389c:	c5 01       	movw	r24, r10
    389e:	4e d1       	rcall	.+668    	; 0x3b3c <strnlen>
    38a0:	4c 01       	movw	r8, r24
    38a2:	82 01       	movw	r16, r4
    38a4:	f3 2d       	mov	r31, r3
    38a6:	ff 77       	andi	r31, 0x7F	; 127
    38a8:	3f 2e       	mov	r3, r31
    38aa:	15 c0       	rjmp	.+42     	; 0x38d6 <vfprintf+0x1aa>
    38ac:	28 01       	movw	r4, r16
    38ae:	22 e0       	ldi	r18, 0x02	; 2
    38b0:	42 0e       	add	r4, r18
    38b2:	51 1c       	adc	r5, r1
    38b4:	f8 01       	movw	r30, r16
    38b6:	a0 80       	ld	r10, Z
    38b8:	b1 80       	ldd	r11, Z+1	; 0x01
    38ba:	36 fe       	sbrs	r3, 6
    38bc:	03 c0       	rjmp	.+6      	; 0x38c4 <vfprintf+0x198>
    38be:	69 2d       	mov	r22, r9
    38c0:	70 e0       	ldi	r23, 0x00	; 0
    38c2:	02 c0       	rjmp	.+4      	; 0x38c8 <vfprintf+0x19c>
    38c4:	6f ef       	ldi	r22, 0xFF	; 255
    38c6:	7f ef       	ldi	r23, 0xFF	; 255
    38c8:	c5 01       	movw	r24, r10
    38ca:	2d d1       	rcall	.+602    	; 0x3b26 <strnlen_P>
    38cc:	4c 01       	movw	r8, r24
    38ce:	f3 2d       	mov	r31, r3
    38d0:	f0 68       	ori	r31, 0x80	; 128
    38d2:	3f 2e       	mov	r3, r31
    38d4:	82 01       	movw	r16, r4
    38d6:	33 fc       	sbrc	r3, 3
    38d8:	19 c0       	rjmp	.+50     	; 0x390c <vfprintf+0x1e0>
    38da:	82 2d       	mov	r24, r2
    38dc:	90 e0       	ldi	r25, 0x00	; 0
    38de:	88 16       	cp	r8, r24
    38e0:	99 06       	cpc	r9, r25
    38e2:	a0 f4       	brcc	.+40     	; 0x390c <vfprintf+0x1e0>
    38e4:	b6 01       	movw	r22, r12
    38e6:	80 e2       	ldi	r24, 0x20	; 32
    38e8:	90 e0       	ldi	r25, 0x00	; 0
    38ea:	33 d1       	rcall	.+614    	; 0x3b52 <fputc>
    38ec:	2a 94       	dec	r2
    38ee:	f5 cf       	rjmp	.-22     	; 0x38da <vfprintf+0x1ae>
    38f0:	f5 01       	movw	r30, r10
    38f2:	37 fc       	sbrc	r3, 7
    38f4:	85 91       	lpm	r24, Z+
    38f6:	37 fe       	sbrs	r3, 7
    38f8:	81 91       	ld	r24, Z+
    38fa:	5f 01       	movw	r10, r30
    38fc:	b6 01       	movw	r22, r12
    38fe:	90 e0       	ldi	r25, 0x00	; 0
    3900:	28 d1       	rcall	.+592    	; 0x3b52 <fputc>
    3902:	21 10       	cpse	r2, r1
    3904:	2a 94       	dec	r2
    3906:	21 e0       	ldi	r18, 0x01	; 1
    3908:	82 1a       	sub	r8, r18
    390a:	91 08       	sbc	r9, r1
    390c:	81 14       	cp	r8, r1
    390e:	91 04       	cpc	r9, r1
    3910:	79 f7       	brne	.-34     	; 0x38f0 <vfprintf+0x1c4>
    3912:	e1 c0       	rjmp	.+450    	; 0x3ad6 <vfprintf+0x3aa>
    3914:	84 36       	cpi	r24, 0x64	; 100
    3916:	11 f0       	breq	.+4      	; 0x391c <vfprintf+0x1f0>
    3918:	89 36       	cpi	r24, 0x69	; 105
    391a:	39 f5       	brne	.+78     	; 0x396a <vfprintf+0x23e>
    391c:	f8 01       	movw	r30, r16
    391e:	37 fe       	sbrs	r3, 7
    3920:	07 c0       	rjmp	.+14     	; 0x3930 <vfprintf+0x204>
    3922:	60 81       	ld	r22, Z
    3924:	71 81       	ldd	r23, Z+1	; 0x01
    3926:	82 81       	ldd	r24, Z+2	; 0x02
    3928:	93 81       	ldd	r25, Z+3	; 0x03
    392a:	0c 5f       	subi	r16, 0xFC	; 252
    392c:	1f 4f       	sbci	r17, 0xFF	; 255
    392e:	08 c0       	rjmp	.+16     	; 0x3940 <vfprintf+0x214>
    3930:	60 81       	ld	r22, Z
    3932:	71 81       	ldd	r23, Z+1	; 0x01
    3934:	07 2e       	mov	r0, r23
    3936:	00 0c       	add	r0, r0
    3938:	88 0b       	sbc	r24, r24
    393a:	99 0b       	sbc	r25, r25
    393c:	0e 5f       	subi	r16, 0xFE	; 254
    393e:	1f 4f       	sbci	r17, 0xFF	; 255
    3940:	f3 2d       	mov	r31, r3
    3942:	ff 76       	andi	r31, 0x6F	; 111
    3944:	3f 2e       	mov	r3, r31
    3946:	97 ff       	sbrs	r25, 7
    3948:	09 c0       	rjmp	.+18     	; 0x395c <vfprintf+0x230>
    394a:	90 95       	com	r25
    394c:	80 95       	com	r24
    394e:	70 95       	com	r23
    3950:	61 95       	neg	r22
    3952:	7f 4f       	sbci	r23, 0xFF	; 255
    3954:	8f 4f       	sbci	r24, 0xFF	; 255
    3956:	9f 4f       	sbci	r25, 0xFF	; 255
    3958:	f0 68       	ori	r31, 0x80	; 128
    395a:	3f 2e       	mov	r3, r31
    395c:	2a e0       	ldi	r18, 0x0A	; 10
    395e:	30 e0       	ldi	r19, 0x00	; 0
    3960:	a3 01       	movw	r20, r6
    3962:	33 d1       	rcall	.+614    	; 0x3bca <__ultoa_invert>
    3964:	88 2e       	mov	r8, r24
    3966:	86 18       	sub	r8, r6
    3968:	44 c0       	rjmp	.+136    	; 0x39f2 <vfprintf+0x2c6>
    396a:	85 37       	cpi	r24, 0x75	; 117
    396c:	31 f4       	brne	.+12     	; 0x397a <vfprintf+0x24e>
    396e:	23 2d       	mov	r18, r3
    3970:	2f 7e       	andi	r18, 0xEF	; 239
    3972:	b2 2e       	mov	r11, r18
    3974:	2a e0       	ldi	r18, 0x0A	; 10
    3976:	30 e0       	ldi	r19, 0x00	; 0
    3978:	25 c0       	rjmp	.+74     	; 0x39c4 <vfprintf+0x298>
    397a:	93 2d       	mov	r25, r3
    397c:	99 7f       	andi	r25, 0xF9	; 249
    397e:	b9 2e       	mov	r11, r25
    3980:	8f 36       	cpi	r24, 0x6F	; 111
    3982:	c1 f0       	breq	.+48     	; 0x39b4 <vfprintf+0x288>
    3984:	18 f4       	brcc	.+6      	; 0x398c <vfprintf+0x260>
    3986:	88 35       	cpi	r24, 0x58	; 88
    3988:	79 f0       	breq	.+30     	; 0x39a8 <vfprintf+0x27c>
    398a:	ae c0       	rjmp	.+348    	; 0x3ae8 <vfprintf+0x3bc>
    398c:	80 37       	cpi	r24, 0x70	; 112
    398e:	19 f0       	breq	.+6      	; 0x3996 <vfprintf+0x26a>
    3990:	88 37       	cpi	r24, 0x78	; 120
    3992:	21 f0       	breq	.+8      	; 0x399c <vfprintf+0x270>
    3994:	a9 c0       	rjmp	.+338    	; 0x3ae8 <vfprintf+0x3bc>
    3996:	e9 2f       	mov	r30, r25
    3998:	e0 61       	ori	r30, 0x10	; 16
    399a:	be 2e       	mov	r11, r30
    399c:	b4 fe       	sbrs	r11, 4
    399e:	0d c0       	rjmp	.+26     	; 0x39ba <vfprintf+0x28e>
    39a0:	fb 2d       	mov	r31, r11
    39a2:	f4 60       	ori	r31, 0x04	; 4
    39a4:	bf 2e       	mov	r11, r31
    39a6:	09 c0       	rjmp	.+18     	; 0x39ba <vfprintf+0x28e>
    39a8:	34 fe       	sbrs	r3, 4
    39aa:	0a c0       	rjmp	.+20     	; 0x39c0 <vfprintf+0x294>
    39ac:	29 2f       	mov	r18, r25
    39ae:	26 60       	ori	r18, 0x06	; 6
    39b0:	b2 2e       	mov	r11, r18
    39b2:	06 c0       	rjmp	.+12     	; 0x39c0 <vfprintf+0x294>
    39b4:	28 e0       	ldi	r18, 0x08	; 8
    39b6:	30 e0       	ldi	r19, 0x00	; 0
    39b8:	05 c0       	rjmp	.+10     	; 0x39c4 <vfprintf+0x298>
    39ba:	20 e1       	ldi	r18, 0x10	; 16
    39bc:	30 e0       	ldi	r19, 0x00	; 0
    39be:	02 c0       	rjmp	.+4      	; 0x39c4 <vfprintf+0x298>
    39c0:	20 e1       	ldi	r18, 0x10	; 16
    39c2:	32 e0       	ldi	r19, 0x02	; 2
    39c4:	f8 01       	movw	r30, r16
    39c6:	b7 fe       	sbrs	r11, 7
    39c8:	07 c0       	rjmp	.+14     	; 0x39d8 <vfprintf+0x2ac>
    39ca:	60 81       	ld	r22, Z
    39cc:	71 81       	ldd	r23, Z+1	; 0x01
    39ce:	82 81       	ldd	r24, Z+2	; 0x02
    39d0:	93 81       	ldd	r25, Z+3	; 0x03
    39d2:	0c 5f       	subi	r16, 0xFC	; 252
    39d4:	1f 4f       	sbci	r17, 0xFF	; 255
    39d6:	06 c0       	rjmp	.+12     	; 0x39e4 <vfprintf+0x2b8>
    39d8:	60 81       	ld	r22, Z
    39da:	71 81       	ldd	r23, Z+1	; 0x01
    39dc:	80 e0       	ldi	r24, 0x00	; 0
    39de:	90 e0       	ldi	r25, 0x00	; 0
    39e0:	0e 5f       	subi	r16, 0xFE	; 254
    39e2:	1f 4f       	sbci	r17, 0xFF	; 255
    39e4:	a3 01       	movw	r20, r6
    39e6:	f1 d0       	rcall	.+482    	; 0x3bca <__ultoa_invert>
    39e8:	88 2e       	mov	r8, r24
    39ea:	86 18       	sub	r8, r6
    39ec:	fb 2d       	mov	r31, r11
    39ee:	ff 77       	andi	r31, 0x7F	; 127
    39f0:	3f 2e       	mov	r3, r31
    39f2:	36 fe       	sbrs	r3, 6
    39f4:	0d c0       	rjmp	.+26     	; 0x3a10 <vfprintf+0x2e4>
    39f6:	23 2d       	mov	r18, r3
    39f8:	2e 7f       	andi	r18, 0xFE	; 254
    39fa:	a2 2e       	mov	r10, r18
    39fc:	89 14       	cp	r8, r9
    39fe:	58 f4       	brcc	.+22     	; 0x3a16 <vfprintf+0x2ea>
    3a00:	34 fe       	sbrs	r3, 4
    3a02:	0b c0       	rjmp	.+22     	; 0x3a1a <vfprintf+0x2ee>
    3a04:	32 fc       	sbrc	r3, 2
    3a06:	09 c0       	rjmp	.+18     	; 0x3a1a <vfprintf+0x2ee>
    3a08:	83 2d       	mov	r24, r3
    3a0a:	8e 7e       	andi	r24, 0xEE	; 238
    3a0c:	a8 2e       	mov	r10, r24
    3a0e:	05 c0       	rjmp	.+10     	; 0x3a1a <vfprintf+0x2ee>
    3a10:	b8 2c       	mov	r11, r8
    3a12:	a3 2c       	mov	r10, r3
    3a14:	03 c0       	rjmp	.+6      	; 0x3a1c <vfprintf+0x2f0>
    3a16:	b8 2c       	mov	r11, r8
    3a18:	01 c0       	rjmp	.+2      	; 0x3a1c <vfprintf+0x2f0>
    3a1a:	b9 2c       	mov	r11, r9
    3a1c:	a4 fe       	sbrs	r10, 4
    3a1e:	0f c0       	rjmp	.+30     	; 0x3a3e <vfprintf+0x312>
    3a20:	fe 01       	movw	r30, r28
    3a22:	e8 0d       	add	r30, r8
    3a24:	f1 1d       	adc	r31, r1
    3a26:	80 81       	ld	r24, Z
    3a28:	80 33       	cpi	r24, 0x30	; 48
    3a2a:	21 f4       	brne	.+8      	; 0x3a34 <vfprintf+0x308>
    3a2c:	9a 2d       	mov	r25, r10
    3a2e:	99 7e       	andi	r25, 0xE9	; 233
    3a30:	a9 2e       	mov	r10, r25
    3a32:	09 c0       	rjmp	.+18     	; 0x3a46 <vfprintf+0x31a>
    3a34:	a2 fe       	sbrs	r10, 2
    3a36:	06 c0       	rjmp	.+12     	; 0x3a44 <vfprintf+0x318>
    3a38:	b3 94       	inc	r11
    3a3a:	b3 94       	inc	r11
    3a3c:	04 c0       	rjmp	.+8      	; 0x3a46 <vfprintf+0x31a>
    3a3e:	8a 2d       	mov	r24, r10
    3a40:	86 78       	andi	r24, 0x86	; 134
    3a42:	09 f0       	breq	.+2      	; 0x3a46 <vfprintf+0x31a>
    3a44:	b3 94       	inc	r11
    3a46:	a3 fc       	sbrc	r10, 3
    3a48:	10 c0       	rjmp	.+32     	; 0x3a6a <vfprintf+0x33e>
    3a4a:	a0 fe       	sbrs	r10, 0
    3a4c:	06 c0       	rjmp	.+12     	; 0x3a5a <vfprintf+0x32e>
    3a4e:	b2 14       	cp	r11, r2
    3a50:	80 f4       	brcc	.+32     	; 0x3a72 <vfprintf+0x346>
    3a52:	28 0c       	add	r2, r8
    3a54:	92 2c       	mov	r9, r2
    3a56:	9b 18       	sub	r9, r11
    3a58:	0d c0       	rjmp	.+26     	; 0x3a74 <vfprintf+0x348>
    3a5a:	b2 14       	cp	r11, r2
    3a5c:	58 f4       	brcc	.+22     	; 0x3a74 <vfprintf+0x348>
    3a5e:	b6 01       	movw	r22, r12
    3a60:	80 e2       	ldi	r24, 0x20	; 32
    3a62:	90 e0       	ldi	r25, 0x00	; 0
    3a64:	76 d0       	rcall	.+236    	; 0x3b52 <fputc>
    3a66:	b3 94       	inc	r11
    3a68:	f8 cf       	rjmp	.-16     	; 0x3a5a <vfprintf+0x32e>
    3a6a:	b2 14       	cp	r11, r2
    3a6c:	18 f4       	brcc	.+6      	; 0x3a74 <vfprintf+0x348>
    3a6e:	2b 18       	sub	r2, r11
    3a70:	02 c0       	rjmp	.+4      	; 0x3a76 <vfprintf+0x34a>
    3a72:	98 2c       	mov	r9, r8
    3a74:	21 2c       	mov	r2, r1
    3a76:	a4 fe       	sbrs	r10, 4
    3a78:	0f c0       	rjmp	.+30     	; 0x3a98 <vfprintf+0x36c>
    3a7a:	b6 01       	movw	r22, r12
    3a7c:	80 e3       	ldi	r24, 0x30	; 48
    3a7e:	90 e0       	ldi	r25, 0x00	; 0
    3a80:	68 d0       	rcall	.+208    	; 0x3b52 <fputc>
    3a82:	a2 fe       	sbrs	r10, 2
    3a84:	16 c0       	rjmp	.+44     	; 0x3ab2 <vfprintf+0x386>
    3a86:	a1 fc       	sbrc	r10, 1
    3a88:	03 c0       	rjmp	.+6      	; 0x3a90 <vfprintf+0x364>
    3a8a:	88 e7       	ldi	r24, 0x78	; 120
    3a8c:	90 e0       	ldi	r25, 0x00	; 0
    3a8e:	02 c0       	rjmp	.+4      	; 0x3a94 <vfprintf+0x368>
    3a90:	88 e5       	ldi	r24, 0x58	; 88
    3a92:	90 e0       	ldi	r25, 0x00	; 0
    3a94:	b6 01       	movw	r22, r12
    3a96:	0c c0       	rjmp	.+24     	; 0x3ab0 <vfprintf+0x384>
    3a98:	8a 2d       	mov	r24, r10
    3a9a:	86 78       	andi	r24, 0x86	; 134
    3a9c:	51 f0       	breq	.+20     	; 0x3ab2 <vfprintf+0x386>
    3a9e:	a1 fe       	sbrs	r10, 1
    3aa0:	02 c0       	rjmp	.+4      	; 0x3aa6 <vfprintf+0x37a>
    3aa2:	8b e2       	ldi	r24, 0x2B	; 43
    3aa4:	01 c0       	rjmp	.+2      	; 0x3aa8 <vfprintf+0x37c>
    3aa6:	80 e2       	ldi	r24, 0x20	; 32
    3aa8:	a7 fc       	sbrc	r10, 7
    3aaa:	8d e2       	ldi	r24, 0x2D	; 45
    3aac:	b6 01       	movw	r22, r12
    3aae:	90 e0       	ldi	r25, 0x00	; 0
    3ab0:	50 d0       	rcall	.+160    	; 0x3b52 <fputc>
    3ab2:	89 14       	cp	r8, r9
    3ab4:	30 f4       	brcc	.+12     	; 0x3ac2 <vfprintf+0x396>
    3ab6:	b6 01       	movw	r22, r12
    3ab8:	80 e3       	ldi	r24, 0x30	; 48
    3aba:	90 e0       	ldi	r25, 0x00	; 0
    3abc:	4a d0       	rcall	.+148    	; 0x3b52 <fputc>
    3abe:	9a 94       	dec	r9
    3ac0:	f8 cf       	rjmp	.-16     	; 0x3ab2 <vfprintf+0x386>
    3ac2:	8a 94       	dec	r8
    3ac4:	f3 01       	movw	r30, r6
    3ac6:	e8 0d       	add	r30, r8
    3ac8:	f1 1d       	adc	r31, r1
    3aca:	80 81       	ld	r24, Z
    3acc:	b6 01       	movw	r22, r12
    3ace:	90 e0       	ldi	r25, 0x00	; 0
    3ad0:	40 d0       	rcall	.+128    	; 0x3b52 <fputc>
    3ad2:	81 10       	cpse	r8, r1
    3ad4:	f6 cf       	rjmp	.-20     	; 0x3ac2 <vfprintf+0x396>
    3ad6:	22 20       	and	r2, r2
    3ad8:	09 f4       	brne	.+2      	; 0x3adc <vfprintf+0x3b0>
    3ada:	4e ce       	rjmp	.-868    	; 0x3778 <vfprintf+0x4c>
    3adc:	b6 01       	movw	r22, r12
    3ade:	80 e2       	ldi	r24, 0x20	; 32
    3ae0:	90 e0       	ldi	r25, 0x00	; 0
    3ae2:	37 d0       	rcall	.+110    	; 0x3b52 <fputc>
    3ae4:	2a 94       	dec	r2
    3ae6:	f7 cf       	rjmp	.-18     	; 0x3ad6 <vfprintf+0x3aa>
    3ae8:	f6 01       	movw	r30, r12
    3aea:	86 81       	ldd	r24, Z+6	; 0x06
    3aec:	97 81       	ldd	r25, Z+7	; 0x07
    3aee:	02 c0       	rjmp	.+4      	; 0x3af4 <vfprintf+0x3c8>
    3af0:	8f ef       	ldi	r24, 0xFF	; 255
    3af2:	9f ef       	ldi	r25, 0xFF	; 255
    3af4:	2b 96       	adiw	r28, 0x0b	; 11
    3af6:	0f b6       	in	r0, 0x3f	; 63
    3af8:	f8 94       	cli
    3afa:	de bf       	out	0x3e, r29	; 62
    3afc:	0f be       	out	0x3f, r0	; 63
    3afe:	cd bf       	out	0x3d, r28	; 61
    3b00:	df 91       	pop	r29
    3b02:	cf 91       	pop	r28
    3b04:	1f 91       	pop	r17
    3b06:	0f 91       	pop	r16
    3b08:	ff 90       	pop	r15
    3b0a:	ef 90       	pop	r14
    3b0c:	df 90       	pop	r13
    3b0e:	cf 90       	pop	r12
    3b10:	bf 90       	pop	r11
    3b12:	af 90       	pop	r10
    3b14:	9f 90       	pop	r9
    3b16:	8f 90       	pop	r8
    3b18:	7f 90       	pop	r7
    3b1a:	6f 90       	pop	r6
    3b1c:	5f 90       	pop	r5
    3b1e:	4f 90       	pop	r4
    3b20:	3f 90       	pop	r3
    3b22:	2f 90       	pop	r2
    3b24:	08 95       	ret

00003b26 <strnlen_P>:
    3b26:	fc 01       	movw	r30, r24
    3b28:	05 90       	lpm	r0, Z+
    3b2a:	61 50       	subi	r22, 0x01	; 1
    3b2c:	70 40       	sbci	r23, 0x00	; 0
    3b2e:	01 10       	cpse	r0, r1
    3b30:	d8 f7       	brcc	.-10     	; 0x3b28 <strnlen_P+0x2>
    3b32:	80 95       	com	r24
    3b34:	90 95       	com	r25
    3b36:	8e 0f       	add	r24, r30
    3b38:	9f 1f       	adc	r25, r31
    3b3a:	08 95       	ret

00003b3c <strnlen>:
    3b3c:	fc 01       	movw	r30, r24
    3b3e:	61 50       	subi	r22, 0x01	; 1
    3b40:	70 40       	sbci	r23, 0x00	; 0
    3b42:	01 90       	ld	r0, Z+
    3b44:	01 10       	cpse	r0, r1
    3b46:	d8 f7       	brcc	.-10     	; 0x3b3e <strnlen+0x2>
    3b48:	80 95       	com	r24
    3b4a:	90 95       	com	r25
    3b4c:	8e 0f       	add	r24, r30
    3b4e:	9f 1f       	adc	r25, r31
    3b50:	08 95       	ret

00003b52 <fputc>:
    3b52:	0f 93       	push	r16
    3b54:	1f 93       	push	r17
    3b56:	cf 93       	push	r28
    3b58:	df 93       	push	r29
    3b5a:	fb 01       	movw	r30, r22
    3b5c:	23 81       	ldd	r18, Z+3	; 0x03
    3b5e:	21 fd       	sbrc	r18, 1
    3b60:	03 c0       	rjmp	.+6      	; 0x3b68 <fputc+0x16>
    3b62:	8f ef       	ldi	r24, 0xFF	; 255
    3b64:	9f ef       	ldi	r25, 0xFF	; 255
    3b66:	2c c0       	rjmp	.+88     	; 0x3bc0 <fputc+0x6e>
    3b68:	22 ff       	sbrs	r18, 2
    3b6a:	16 c0       	rjmp	.+44     	; 0x3b98 <fputc+0x46>
    3b6c:	46 81       	ldd	r20, Z+6	; 0x06
    3b6e:	57 81       	ldd	r21, Z+7	; 0x07
    3b70:	24 81       	ldd	r18, Z+4	; 0x04
    3b72:	35 81       	ldd	r19, Z+5	; 0x05
    3b74:	42 17       	cp	r20, r18
    3b76:	53 07       	cpc	r21, r19
    3b78:	44 f4       	brge	.+16     	; 0x3b8a <fputc+0x38>
    3b7a:	a0 81       	ld	r26, Z
    3b7c:	b1 81       	ldd	r27, Z+1	; 0x01
    3b7e:	9d 01       	movw	r18, r26
    3b80:	2f 5f       	subi	r18, 0xFF	; 255
    3b82:	3f 4f       	sbci	r19, 0xFF	; 255
    3b84:	31 83       	std	Z+1, r19	; 0x01
    3b86:	20 83       	st	Z, r18
    3b88:	8c 93       	st	X, r24
    3b8a:	26 81       	ldd	r18, Z+6	; 0x06
    3b8c:	37 81       	ldd	r19, Z+7	; 0x07
    3b8e:	2f 5f       	subi	r18, 0xFF	; 255
    3b90:	3f 4f       	sbci	r19, 0xFF	; 255
    3b92:	37 83       	std	Z+7, r19	; 0x07
    3b94:	26 83       	std	Z+6, r18	; 0x06
    3b96:	14 c0       	rjmp	.+40     	; 0x3bc0 <fputc+0x6e>
    3b98:	8b 01       	movw	r16, r22
    3b9a:	ec 01       	movw	r28, r24
    3b9c:	fb 01       	movw	r30, r22
    3b9e:	00 84       	ldd	r0, Z+8	; 0x08
    3ba0:	f1 85       	ldd	r31, Z+9	; 0x09
    3ba2:	e0 2d       	mov	r30, r0
    3ba4:	19 95       	eicall
    3ba6:	89 2b       	or	r24, r25
    3ba8:	e1 f6       	brne	.-72     	; 0x3b62 <fputc+0x10>
    3baa:	d8 01       	movw	r26, r16
    3bac:	16 96       	adiw	r26, 0x06	; 6
    3bae:	8d 91       	ld	r24, X+
    3bb0:	9c 91       	ld	r25, X
    3bb2:	17 97       	sbiw	r26, 0x07	; 7
    3bb4:	01 96       	adiw	r24, 0x01	; 1
    3bb6:	17 96       	adiw	r26, 0x07	; 7
    3bb8:	9c 93       	st	X, r25
    3bba:	8e 93       	st	-X, r24
    3bbc:	16 97       	sbiw	r26, 0x06	; 6
    3bbe:	ce 01       	movw	r24, r28
    3bc0:	df 91       	pop	r29
    3bc2:	cf 91       	pop	r28
    3bc4:	1f 91       	pop	r17
    3bc6:	0f 91       	pop	r16
    3bc8:	08 95       	ret

00003bca <__ultoa_invert>:
    3bca:	fa 01       	movw	r30, r20
    3bcc:	aa 27       	eor	r26, r26
    3bce:	28 30       	cpi	r18, 0x08	; 8
    3bd0:	51 f1       	breq	.+84     	; 0x3c26 <__ultoa_invert+0x5c>
    3bd2:	20 31       	cpi	r18, 0x10	; 16
    3bd4:	81 f1       	breq	.+96     	; 0x3c36 <__ultoa_invert+0x6c>
    3bd6:	e8 94       	clt
    3bd8:	6f 93       	push	r22
    3bda:	6e 7f       	andi	r22, 0xFE	; 254
    3bdc:	6e 5f       	subi	r22, 0xFE	; 254
    3bde:	7f 4f       	sbci	r23, 0xFF	; 255
    3be0:	8f 4f       	sbci	r24, 0xFF	; 255
    3be2:	9f 4f       	sbci	r25, 0xFF	; 255
    3be4:	af 4f       	sbci	r26, 0xFF	; 255
    3be6:	b1 e0       	ldi	r27, 0x01	; 1
    3be8:	3e d0       	rcall	.+124    	; 0x3c66 <__ultoa_invert+0x9c>
    3bea:	b4 e0       	ldi	r27, 0x04	; 4
    3bec:	3c d0       	rcall	.+120    	; 0x3c66 <__ultoa_invert+0x9c>
    3bee:	67 0f       	add	r22, r23
    3bf0:	78 1f       	adc	r23, r24
    3bf2:	89 1f       	adc	r24, r25
    3bf4:	9a 1f       	adc	r25, r26
    3bf6:	a1 1d       	adc	r26, r1
    3bf8:	68 0f       	add	r22, r24
    3bfa:	79 1f       	adc	r23, r25
    3bfc:	8a 1f       	adc	r24, r26
    3bfe:	91 1d       	adc	r25, r1
    3c00:	a1 1d       	adc	r26, r1
    3c02:	6a 0f       	add	r22, r26
    3c04:	71 1d       	adc	r23, r1
    3c06:	81 1d       	adc	r24, r1
    3c08:	91 1d       	adc	r25, r1
    3c0a:	a1 1d       	adc	r26, r1
    3c0c:	20 d0       	rcall	.+64     	; 0x3c4e <__ultoa_invert+0x84>
    3c0e:	09 f4       	brne	.+2      	; 0x3c12 <__ultoa_invert+0x48>
    3c10:	68 94       	set
    3c12:	3f 91       	pop	r19
    3c14:	2a e0       	ldi	r18, 0x0A	; 10
    3c16:	26 9f       	mul	r18, r22
    3c18:	11 24       	eor	r1, r1
    3c1a:	30 19       	sub	r19, r0
    3c1c:	30 5d       	subi	r19, 0xD0	; 208
    3c1e:	31 93       	st	Z+, r19
    3c20:	de f6       	brtc	.-74     	; 0x3bd8 <__ultoa_invert+0xe>
    3c22:	cf 01       	movw	r24, r30
    3c24:	08 95       	ret
    3c26:	46 2f       	mov	r20, r22
    3c28:	47 70       	andi	r20, 0x07	; 7
    3c2a:	40 5d       	subi	r20, 0xD0	; 208
    3c2c:	41 93       	st	Z+, r20
    3c2e:	b3 e0       	ldi	r27, 0x03	; 3
    3c30:	0f d0       	rcall	.+30     	; 0x3c50 <__ultoa_invert+0x86>
    3c32:	c9 f7       	brne	.-14     	; 0x3c26 <__ultoa_invert+0x5c>
    3c34:	f6 cf       	rjmp	.-20     	; 0x3c22 <__ultoa_invert+0x58>
    3c36:	46 2f       	mov	r20, r22
    3c38:	4f 70       	andi	r20, 0x0F	; 15
    3c3a:	40 5d       	subi	r20, 0xD0	; 208
    3c3c:	4a 33       	cpi	r20, 0x3A	; 58
    3c3e:	18 f0       	brcs	.+6      	; 0x3c46 <__ultoa_invert+0x7c>
    3c40:	49 5d       	subi	r20, 0xD9	; 217
    3c42:	31 fd       	sbrc	r19, 1
    3c44:	40 52       	subi	r20, 0x20	; 32
    3c46:	41 93       	st	Z+, r20
    3c48:	02 d0       	rcall	.+4      	; 0x3c4e <__ultoa_invert+0x84>
    3c4a:	a9 f7       	brne	.-22     	; 0x3c36 <__ultoa_invert+0x6c>
    3c4c:	ea cf       	rjmp	.-44     	; 0x3c22 <__ultoa_invert+0x58>
    3c4e:	b4 e0       	ldi	r27, 0x04	; 4
    3c50:	a6 95       	lsr	r26
    3c52:	97 95       	ror	r25
    3c54:	87 95       	ror	r24
    3c56:	77 95       	ror	r23
    3c58:	67 95       	ror	r22
    3c5a:	ba 95       	dec	r27
    3c5c:	c9 f7       	brne	.-14     	; 0x3c50 <__ultoa_invert+0x86>
    3c5e:	00 97       	sbiw	r24, 0x00	; 0
    3c60:	61 05       	cpc	r22, r1
    3c62:	71 05       	cpc	r23, r1
    3c64:	08 95       	ret
    3c66:	9b 01       	movw	r18, r22
    3c68:	ac 01       	movw	r20, r24
    3c6a:	0a 2e       	mov	r0, r26
    3c6c:	06 94       	lsr	r0
    3c6e:	57 95       	ror	r21
    3c70:	47 95       	ror	r20
    3c72:	37 95       	ror	r19
    3c74:	27 95       	ror	r18
    3c76:	ba 95       	dec	r27
    3c78:	c9 f7       	brne	.-14     	; 0x3c6c <__ultoa_invert+0xa2>
    3c7a:	62 0f       	add	r22, r18
    3c7c:	73 1f       	adc	r23, r19
    3c7e:	84 1f       	adc	r24, r20
    3c80:	95 1f       	adc	r25, r21
    3c82:	a0 1d       	adc	r26, r0
    3c84:	08 95       	ret

00003c86 <_exit>:
    3c86:	f8 94       	cli

00003c88 <__stop_program>:
    3c88:	ff cf       	rjmp	.-2      	; 0x3c88 <__stop_program>
